(lp0
F3.000000000000007e-07
aF1.9999999999999946e-07
aF8.999999999999916e-07
aF9.999999999999989e-08
aF6.000000000000008e-07
aF9.999999999999934e-07
aF1.300000000000016e-06
aF1.500000000000031e-06
aF3.000000000000007e-07
aF1.6000000000000385e-06
aF8.999999999999916e-07
aF6.000000000000008e-07
aF5.000000000000039e-07
aF6.999999999999977e-07
aF1.9999999999999946e-07
aF7.999999999999947e-07
aF1.4000000000000234e-06
aF2.100000000000076e-06
aF9.999999999999934e-07
aF7.999999999999947e-07
a.