(lp0
F2.4999999999999862e-06
aF2.4999999999999862e-06
aF4.999999999999962e-06
aF2.4999999999999862e-06
aF9.999999999999914e-06
aF2.4999999999999862e-06
aF2.4999999999999862e-06
aF2.4999999999999862e-06
aF4.999999999999962e-06
aF2.4999999999999862e-06
aF4.999999999999962e-06
aF4.999999999999962e-06
aF2.4999999999999862e-06
aF4.999999999999962e-06
aF2.4999999999999862e-06
aF2.4999999999999862e-06
aF2.4999999999999862e-06
aF4.999999999999962e-06
aF4.999999999999962e-06
aF2.4999999999999862e-06
aF2.4999999999999862e-06
aF4.999999999999962e-06
aF2.4999999999999862e-06
aF4.999999999999962e-06
aF2.4999999999999862e-06
aF2.4999999999999862e-06
aF4.999999999999962e-06
aF4.999999999999962e-06
aF4.999999999999962e-06
aF7.499999999999938e-06
aF7.499999999999938e-06
aF4.999999999999962e-06
aF2.4999999999999862e-06
aF4.999999999999962e-06
aF4.999999999999962e-06
aF4.999999999999962e-06
aF2.4999999999999862e-06
aF4.999999999999962e-06
aF4.999999999999962e-06
aF2.4999999999999862e-06
aF2.4999999999999862e-06
aF4.999999999999962e-06
aF2.4999999999999862e-06
aF7.499999999999938e-06
aF2.4999999999999862e-06
aF4.999999999999962e-06
aF7.499999999999938e-06
aF4.999999999999962e-06
aF4.999999999999962e-06
aF4.999999999999962e-06
aF2.4999999999999862e-06
aF2.4999999999999862e-06
aF4.999999999999962e-06
aF2.4999999999999862e-06
aF9.999999999999914e-06
aF2.4999999999999862e-06
aF4.999999999999962e-06
aF2.4999999999999862e-06
aF2.4999999999999862e-06
aF2.4999999999999862e-06
aF2.4999999999999862e-06
aF2.4999999999999862e-06
aF2.4999999999999862e-06
aF2.4999999999999862e-06
aF4.999999999999962e-06
aF2.4999999999999862e-06
aF4.999999999999962e-06
aF2.4999999999999862e-06
aF2.4999999999999862e-06
aF2.4999999999999862e-06
aF4.999999999999962e-06
aF2.4999999999999862e-06
aF9.999999999999914e-06
aF4.999999999999962e-06
aF7.499999999999938e-06
aF2.4999999999999862e-06
aF4.999999999999962e-06
aF4.999999999999962e-06
aF4.999999999999962e-06
aF4.999999999999962e-06
aF2.4999999999999862e-06
aF2.4999999999999862e-06
aF4.999999999999962e-06
aF2.4999999999999862e-06
aF7.499999999999938e-06
aF4.999999999999962e-06
aF2.4999999999999862e-06
aF2.4999999999999862e-06
aF9.999999999999914e-06
aF4.999999999999962e-06
aF4.999999999999962e-06
aF4.999999999999962e-06
aF4.999999999999962e-06
aF2.4999999999999862e-06
aF2.4999999999999862e-06
aF2.4999999999999862e-06
aF2.4999999999999862e-06
aF4.999999999999962e-06
aF2.4999999999999862e-06
aF2.4999999999999862e-06
aF7.499999999999938e-06
aF4.999999999999962e-06
aF2.4999999999999862e-06
aF2.4999999999999862e-06
aF4.999999999999962e-06
aF7.499999999999938e-06
aF4.999999999999962e-06
aF4.999999999999962e-06
aF2.4999999999999862e-06
aF2.4999999999999862e-06
aF2.4999999999999862e-06
aF2.4999999999999862e-06
aF2.4999999999999862e-06
aF2.4999999999999862e-06
aF2.4999999999999862e-06
aF2.4999999999999862e-06
aF2.4999999999999862e-06
aF4.999999999999962e-06
aF2.4999999999999862e-06
aF4.999999999999962e-06
aF4.999999999999962e-06
aF4.999999999999962e-06
aF4.999999999999962e-06
aF4.999999999999962e-06
aF4.999999999999962e-06
aF2.4999999999999862e-06
aF2.4999999999999862e-06
aF2.4999999999999862e-06
aF2.4999999999999862e-06
aF2.4999999999999862e-06
aF2.4999999999999862e-06
aF4.999999999999962e-06
aF2.4999999999999862e-06
aF7.499999999999938e-06
aF4.999999999999962e-06
aF4.999999999999962e-06
aF2.4999999999999862e-06
aF2.4999999999999862e-06
aF2.4999999999999862e-06
aF4.999999999999962e-06
aF2.4999999999999862e-06
aF2.4999999999999862e-06
aF4.999999999999962e-06
aF2.4999999999999862e-06
aF4.999999999999962e-06
aF4.999999999999962e-06
aF9.999999999999914e-06
aF4.999999999999962e-06
aF4.999999999999962e-06
aF4.999999999999962e-06
aF4.999999999999962e-06
aF2.4999999999999862e-06
aF2.4999999999999862e-06
aF4.999999999999962e-06
aF2.4999999999999862e-06
aF7.499999999999938e-06
aF4.999999999999962e-06
aF2.4999999999999862e-06
aF2.4999999999999862e-06
aF2.4999999999999862e-06
aF4.999999999999962e-06
aF2.4999999999999862e-06
aF2.4999999999999862e-06
aF2.4999999999999862e-06
aF2.4999999999999862e-06
aF4.999999999999962e-06
aF2.4999999999999862e-06
aF4.999999999999962e-06
aF2.4999999999999862e-06
aF2.4999999999999862e-06
aF7.499999999999938e-06
aF2.4999999999999862e-06
aF2.4999999999999862e-06
aF4.999999999999962e-06
aF4.999999999999962e-06
aF4.999999999999962e-06
aF4.999999999999962e-06
aF4.999999999999962e-06
aF2.4999999999999862e-06
aF2.4999999999999862e-06
aF2.4999999999999862e-06
aF4.999999999999962e-06
aF7.499999999999938e-06
aF2.4999999999999862e-06
aF4.999999999999962e-06
aF2.4999999999999862e-06
aF2.4999999999999862e-06
aF4.999999999999962e-06
aF2.4999999999999862e-06
aF7.499999999999938e-06
aF2.4999999999999862e-06
aF4.999999999999962e-06
aF2.4999999999999862e-06
aF2.4999999999999862e-06
aF2.4999999999999862e-06
aF2.4999999999999862e-06
aF2.4999999999999862e-06
aF4.999999999999962e-06
aF4.999999999999962e-06
aF4.999999999999962e-06
aF2.4999999999999862e-06
aF2.4999999999999862e-06
aF4.999999999999962e-06
aF2.4999999999999862e-06
aF4.999999999999962e-06
aF4.999999999999962e-06
aF2.4999999999999862e-06
aF4.999999999999962e-06
aF4.999999999999962e-06
aF2.4999999999999862e-06
aF4.999999999999962e-06
aF4.999999999999962e-06
aF4.999999999999962e-06
aF2.4999999999999862e-06
aF4.999999999999962e-06
aF2.4999999999999862e-06
aF4.999999999999962e-06
aF2.4999999999999862e-06
aF2.4999999999999862e-06
aF4.999999999999962e-06
aF2.4999999999999862e-06
aF2.4999999999999862e-06
aF4.999999999999962e-06
aF4.999999999999962e-06
aF2.4999999999999862e-06
aF2.4999999999999862e-06
aF4.999999999999962e-06
aF2.4999999999999862e-06
aF2.4999999999999862e-06
aF7.499999999999938e-06
aF7.499999999999938e-06
aF2.4999999999999862e-06
aF2.4999999999999862e-06
aF2.4999999999999862e-06
aF2.4999999999999862e-06
aF4.999999999999962e-06
aF2.4999999999999862e-06
aF2.4999999999999862e-06
aF2.4999999999999862e-06
aF4.999999999999962e-06
aF4.999999999999962e-06
aF2.4999999999999862e-06
aF2.4999999999999862e-06
aF2.4999999999999862e-06
aF2.4999999999999862e-06
aF4.999999999999962e-06
aF4.999999999999962e-06
aF2.4999999999999862e-06
aF2.4999999999999862e-06
aF2.4999999999999862e-06
aF7.499999999999938e-06
aF4.999999999999962e-06
aF2.4999999999999862e-06
a.