(lp0
I0
aF1.0000000000000002e-10
aF2.0000000000000003e-10
aF3.0000000000000005e-10
aF4.0000000000000007e-10
aF5.000000000000001e-10
aF6.000000000000002e-10
aF7.000000000000003e-10
aF8.000000000000003e-10
aF9.000000000000004e-10
aF1.0000000000000005e-09
aF1.1000000000000005e-09
aF1.2000000000000006e-09
aF1.3000000000000007e-09
aF1.4000000000000007e-09
aF1.5000000000000008e-09
aF1.6000000000000009e-09
aF1.700000000000001e-09
aF1.800000000000001e-09
aF1.900000000000001e-09
aF2.000000000000001e-09
aF2.100000000000001e-09
aF2.200000000000001e-09
aF2.300000000000001e-09
aF2.4000000000000012e-09
aF2.5000000000000013e-09
aF2.6000000000000014e-09
aF2.7000000000000014e-09
aF2.8000000000000015e-09
aF2.9000000000000016e-09
aF3.0000000000000016e-09
aF3.1000000000000017e-09
aF3.2000000000000018e-09
aF3.300000000000002e-09
aF3.400000000000002e-09
aF3.500000000000002e-09
aF3.600000000000002e-09
aF3.700000000000002e-09
aF3.800000000000002e-09
aF3.900000000000002e-09
aF4.000000000000002e-09
aF4.100000000000002e-09
aF4.200000000000002e-09
aF4.300000000000002e-09
aF4.400000000000002e-09
aF4.500000000000002e-09
aF4.600000000000002e-09
aF4.700000000000002e-09
aF4.8000000000000024e-09
aF4.9000000000000025e-09
aF5.0000000000000026e-09
aF5.100000000000003e-09
aF5.200000000000003e-09
aF5.300000000000003e-09
aF5.400000000000003e-09
aF5.500000000000003e-09
aF5.600000000000003e-09
aF5.700000000000003e-09
aF5.800000000000003e-09
aF5.900000000000003e-09
aF6.000000000000003e-09
aF6.100000000000003e-09
aF6.200000000000003e-09
aF6.3000000000000035e-09
aF6.4000000000000035e-09
aF6.500000000000004e-09
aF6.600000000000004e-09
aF6.700000000000004e-09
aF6.800000000000004e-09
aF6.900000000000004e-09
aF7.000000000000004e-09
aF7.100000000000004e-09
aF7.200000000000004e-09
aF7.300000000000004e-09
aF7.400000000000004e-09
aF7.500000000000004e-09
aF7.600000000000004e-09
aF7.700000000000003e-09
aF7.800000000000002e-09
aF7.900000000000001e-09
aF8e-09
aF8.1e-09
aF8.199999999999999e-09
aF8.299999999999998e-09
aF8.399999999999997e-09
aF8.499999999999997e-09
aF8.599999999999996e-09
aF8.699999999999995e-09
aF8.799999999999994e-09
aF8.899999999999994e-09
aF8.999999999999993e-09
aF9.099999999999992e-09
aF9.199999999999991e-09
aF9.29999999999999e-09
aF9.39999999999999e-09
aF9.499999999999989e-09
aF9.599999999999988e-09
aF9.699999999999988e-09
aF9.799999999999987e-09
aF9.899999999999986e-09
aF9.999999999999985e-09
aF1.0099999999999985e-08
aF1.0199999999999984e-08
aF1.0299999999999983e-08
aF1.0399999999999982e-08
aF1.0499999999999982e-08
aF1.059999999999998e-08
aF1.069999999999998e-08
aF1.079999999999998e-08
aF1.0899999999999978e-08
aF1.0999999999999978e-08
aF1.1099999999999977e-08
aF1.1199999999999976e-08
aF1.1299999999999975e-08
aF1.1399999999999975e-08
aF1.1499999999999974e-08
aF1.1599999999999973e-08
aF1.1699999999999972e-08
aF1.1799999999999972e-08
aF1.1899999999999971e-08
aF1.199999999999997e-08
aF1.209999999999997e-08
aF1.2199999999999969e-08
aF1.2299999999999968e-08
aF1.2399999999999967e-08
aF1.2499999999999966e-08
aF1.2599999999999966e-08
aF1.2699999999999965e-08
aF1.2799999999999964e-08
aF1.2899999999999963e-08
aF1.2999999999999963e-08
aF1.3099999999999962e-08
aF1.3199999999999961e-08
aF1.329999999999996e-08
aF1.339999999999996e-08
aF1.3499999999999959e-08
aF1.3599999999999958e-08
aF1.3699999999999957e-08
aF1.3799999999999956e-08
aF1.3899999999999956e-08
aF1.3999999999999955e-08
aF1.4099999999999954e-08
aF1.4199999999999953e-08
aF1.4299999999999953e-08
aF1.4399999999999952e-08
aF1.4499999999999951e-08
aF1.459999999999995e-08
aF1.469999999999995e-08
aF1.4799999999999949e-08
aF1.4899999999999948e-08
aF1.499999999999995e-08
aF1.509999999999995e-08
aF1.519999999999995e-08
aF1.5299999999999952e-08
aF1.5399999999999953e-08
aF1.5499999999999954e-08
aF1.5599999999999954e-08
aF1.5699999999999955e-08
aF1.5799999999999956e-08
aF1.5899999999999957e-08
aF1.5999999999999958e-08
aF1.609999999999996e-08
aF1.619999999999996e-08
aF1.629999999999996e-08
aF1.639999999999996e-08
aF1.6499999999999962e-08
aF1.6599999999999963e-08
aF1.6699999999999964e-08
aF1.6799999999999965e-08
aF1.6899999999999966e-08
aF1.6999999999999967e-08
aF1.7099999999999968e-08
aF1.719999999999997e-08
aF1.729999999999997e-08
aF1.739999999999997e-08
aF1.749999999999997e-08
aF1.7599999999999972e-08
aF1.7699999999999973e-08
aF1.7799999999999974e-08
aF1.7899999999999975e-08
aF1.7999999999999976e-08
aF1.8099999999999977e-08
aF1.8199999999999978e-08
aF1.829999999999998e-08
aF1.839999999999998e-08
aF1.849999999999998e-08
aF1.859999999999998e-08
aF1.8699999999999982e-08
aF1.8799999999999983e-08
aF1.8899999999999984e-08
aF1.8999999999999985e-08
aF1.9099999999999986e-08
aF1.9199999999999987e-08
aF1.9299999999999988e-08
aF1.939999999999999e-08
aF1.949999999999999e-08
aF1.959999999999999e-08
aF1.969999999999999e-08
aF1.9799999999999992e-08
aF1.9899999999999993e-08
aF1.9999999999999994e-08
aF2.0099999999999995e-08
aF2.0199999999999996e-08
aF2.0299999999999996e-08
a.