(lp0
I0
aF1.0000000000000002e-10
aF2.0000000000000003e-10
aF3.0000000000000005e-10
aF4.0000000000000007e-10
aF5.000000000000001e-10
aF6.000000000000002e-10
aF7.000000000000003e-10
aF8.000000000000003e-10
aF9.000000000000004e-10
aF1.0000000000000005e-09
aF1.1000000000000005e-09
aF1.2000000000000006e-09
aF1.3000000000000007e-09
aF1.4000000000000007e-09
aF1.5000000000000008e-09
aF1.6000000000000009e-09
aF1.700000000000001e-09
aF1.800000000000001e-09
aF1.900000000000001e-09
aF2.000000000000001e-09
aF2.100000000000001e-09
aF2.200000000000001e-09
aF2.300000000000001e-09
aF2.4000000000000012e-09
aF2.5000000000000013e-09
aF2.6000000000000014e-09
aF2.7000000000000014e-09
aF2.8000000000000015e-09
aF2.9000000000000016e-09
aF3.0000000000000016e-09
aF3.1000000000000017e-09
aF3.2000000000000018e-09
aF3.300000000000002e-09
aF3.400000000000002e-09
aF3.500000000000002e-09
aF3.600000000000002e-09
aF3.700000000000002e-09
aF3.800000000000002e-09
aF3.900000000000002e-09
aF4.000000000000002e-09
aF4.100000000000002e-09
aF4.200000000000002e-09
aF4.300000000000002e-09
aF4.400000000000002e-09
aF4.500000000000002e-09
aF4.600000000000002e-09
aF4.700000000000002e-09
aF4.8000000000000024e-09
aF4.9000000000000025e-09
aF5.0000000000000026e-09
aF5.100000000000003e-09
aF5.200000000000003e-09
aF5.300000000000003e-09
aF5.400000000000003e-09
aF5.500000000000003e-09
aF5.600000000000003e-09
aF5.700000000000003e-09
aF5.800000000000003e-09
aF5.900000000000003e-09
aF6.000000000000003e-09
aF6.100000000000003e-09
aF6.200000000000003e-09
aF6.3000000000000035e-09
aF6.4000000000000035e-09
aF6.500000000000004e-09
aF6.600000000000004e-09
aF6.700000000000004e-09
aF6.800000000000004e-09
aF6.900000000000004e-09
aF7.000000000000004e-09
aF7.100000000000004e-09
aF7.200000000000004e-09
aF7.300000000000004e-09
aF7.400000000000004e-09
aF7.500000000000004e-09
aF7.600000000000004e-09
aF7.700000000000003e-09
aF7.800000000000002e-09
aF7.900000000000001e-09
aF8e-09
aF8.1e-09
aF8.199999999999999e-09
aF8.299999999999998e-09
aF8.399999999999997e-09
aF8.499999999999997e-09
aF8.599999999999996e-09
aF8.699999999999995e-09
aF8.799999999999994e-09
aF8.899999999999994e-09
aF8.999999999999993e-09
aF9.099999999999992e-09
aF9.199999999999991e-09
aF9.29999999999999e-09
aF9.39999999999999e-09
aF9.499999999999989e-09
aF9.599999999999988e-09
aF9.699999999999988e-09
aF9.799999999999987e-09
aF9.899999999999986e-09
aF9.999999999999985e-09
aF1.0099999999999985e-08
aF1.0199999999999984e-08
aF1.0299999999999983e-08
aF1.0399999999999982e-08
aF1.0499999999999982e-08
aF1.059999999999998e-08
aF1.069999999999998e-08
aF1.079999999999998e-08
aF1.0899999999999978e-08
aF1.0999999999999978e-08
aF1.1099999999999977e-08
aF1.1199999999999976e-08
aF1.1299999999999975e-08
aF1.1399999999999975e-08
aF1.1499999999999974e-08
aF1.1599999999999973e-08
aF1.1699999999999972e-08
aF1.1799999999999972e-08
aF1.1899999999999971e-08
aF1.199999999999997e-08
aF1.209999999999997e-08
aF1.2199999999999969e-08
aF1.2299999999999968e-08
aF1.2399999999999967e-08
aF1.2499999999999966e-08
aF1.2599999999999966e-08
aF1.2699999999999965e-08
aF1.2799999999999964e-08
aF1.2899999999999963e-08
aF1.2999999999999963e-08
aF1.3099999999999962e-08
aF1.3199999999999961e-08
aF1.329999999999996e-08
aF1.339999999999996e-08
aF1.3499999999999959e-08
aF1.3599999999999958e-08
aF1.3699999999999957e-08
aF1.3799999999999956e-08
aF1.3899999999999956e-08
aF1.3999999999999955e-08
aF1.4099999999999954e-08
aF1.4199999999999953e-08
aF1.4299999999999953e-08
aF1.4399999999999952e-08
aF1.4499999999999951e-08
aF1.459999999999995e-08
aF1.469999999999995e-08
aF1.4799999999999949e-08
aF1.4899999999999948e-08
aF1.499999999999995e-08
aF1.509999999999995e-08
aF1.519999999999995e-08
aF1.5299999999999952e-08
aF1.5399999999999953e-08
aF1.5499999999999954e-08
aF1.5599999999999954e-08
aF1.5699999999999955e-08
aF1.5799999999999956e-08
aF1.5899999999999957e-08
aF1.5999999999999958e-08
aF1.609999999999996e-08
aF1.619999999999996e-08
aF1.629999999999996e-08
aF1.639999999999996e-08
aF1.6499999999999962e-08
aF1.6599999999999963e-08
aF1.6699999999999964e-08
aF1.6799999999999965e-08
aF1.6899999999999966e-08
aF1.6999999999999967e-08
aF1.7099999999999968e-08
aF1.719999999999997e-08
aF1.729999999999997e-08
aF1.739999999999997e-08
aF1.749999999999997e-08
aF1.7599999999999972e-08
aF1.7699999999999973e-08
aF1.7799999999999974e-08
aF1.7899999999999975e-08
aF1.7999999999999976e-08
aF1.8099999999999977e-08
aF1.8199999999999978e-08
aF1.829999999999998e-08
aF1.839999999999998e-08
aF1.849999999999998e-08
aF1.859999999999998e-08
aF1.8699999999999982e-08
aF1.8799999999999983e-08
aF1.8899999999999984e-08
aF1.8999999999999985e-08
aF1.9099999999999986e-08
aF1.9199999999999987e-08
aF1.9299999999999988e-08
aF1.939999999999999e-08
aF1.949999999999999e-08
aF1.959999999999999e-08
aF1.969999999999999e-08
aF1.9799999999999992e-08
aF1.9899999999999993e-08
aF1.9999999999999994e-08
aF2.0099999999999995e-08
aF2.0199999999999996e-08
aF2.0299999999999996e-08
aF2.0399999999999997e-08
aF2.0499999999999998e-08
aF2.06e-08
aF2.07e-08
aF2.08e-08
aF2.0900000000000002e-08
aF2.1000000000000003e-08
aF2.1100000000000004e-08
aF2.1200000000000005e-08
aF2.1300000000000005e-08
aF2.1400000000000006e-08
aF2.1500000000000007e-08
aF2.1600000000000008e-08
aF2.170000000000001e-08
aF2.180000000000001e-08
aF2.190000000000001e-08
aF2.2000000000000012e-08
aF2.2100000000000013e-08
aF2.2200000000000014e-08
aF2.2300000000000014e-08
aF2.2400000000000015e-08
aF2.2500000000000016e-08
aF2.2600000000000017e-08
aF2.2700000000000018e-08
aF2.280000000000002e-08
aF2.290000000000002e-08
aF2.300000000000002e-08
aF2.310000000000002e-08
aF2.3200000000000022e-08
aF2.3300000000000023e-08
aF2.3400000000000024e-08
aF2.3500000000000025e-08
aF2.3600000000000026e-08
aF2.3700000000000027e-08
aF2.3800000000000028e-08
aF2.390000000000003e-08
aF2.400000000000003e-08
aF2.410000000000003e-08
aF2.420000000000003e-08
aF2.4300000000000032e-08
aF2.4400000000000033e-08
aF2.4500000000000034e-08
aF2.4600000000000035e-08
aF2.4700000000000036e-08
aF2.4800000000000037e-08
aF2.4900000000000038e-08
aF2.500000000000004e-08
aF2.510000000000004e-08
aF2.520000000000004e-08
aF2.530000000000004e-08
aF2.5400000000000042e-08
aF2.5500000000000043e-08
aF2.5600000000000044e-08
aF2.5700000000000045e-08
aF2.5800000000000046e-08
aF2.5900000000000047e-08
aF2.6000000000000048e-08
aF2.610000000000005e-08
aF2.620000000000005e-08
aF2.630000000000005e-08
aF2.640000000000005e-08
aF2.6500000000000052e-08
aF2.6600000000000053e-08
aF2.6700000000000054e-08
aF2.6800000000000055e-08
aF2.6900000000000056e-08
aF2.7000000000000056e-08
aF2.7100000000000057e-08
aF2.7200000000000058e-08
aF2.730000000000006e-08
aF2.740000000000006e-08
aF2.750000000000006e-08
aF2.7600000000000062e-08
aF2.7700000000000063e-08
aF2.7800000000000064e-08
aF2.7900000000000065e-08
aF2.8000000000000065e-08
aF2.8100000000000066e-08
aF2.8200000000000067e-08
aF2.8300000000000068e-08
aF2.840000000000007e-08
aF2.850000000000007e-08
aF2.860000000000007e-08
aF2.8700000000000072e-08
aF2.8800000000000073e-08
aF2.8900000000000073e-08
aF2.9000000000000074e-08
aF2.9100000000000075e-08
aF2.9200000000000076e-08
aF2.9300000000000077e-08
aF2.9400000000000078e-08
aF2.950000000000008e-08
aF2.960000000000008e-08
aF2.970000000000008e-08
aF2.980000000000008e-08
aF2.990000000000008e-08
aF3.0000000000000083e-08
aF3.0100000000000084e-08
aF3.0200000000000085e-08
aF3.0300000000000086e-08
aF3.040000000000009e-08
aF3.050000000000009e-08
aF3.060000000000009e-08
aF3.070000000000009e-08
aF3.080000000000009e-08
aF3.090000000000009e-08
aF3.100000000000009e-08
aF3.110000000000009e-08
aF3.1200000000000094e-08
aF3.1300000000000095e-08
aF3.1400000000000096e-08
aF3.15000000000001e-08
aF3.16000000000001e-08
aF3.17000000000001e-08
aF3.18000000000001e-08
aF3.19000000000001e-08
aF3.20000000000001e-08
aF3.21000000000001e-08
aF3.22000000000001e-08
aF3.2300000000000104e-08
aF3.2400000000000105e-08
aF3.2500000000000106e-08
aF3.2600000000000107e-08
aF3.270000000000011e-08
aF3.280000000000011e-08
aF3.290000000000011e-08
aF3.300000000000011e-08
aF3.310000000000011e-08
aF3.320000000000011e-08
aF3.330000000000011e-08
aF3.3400000000000114e-08
aF3.3500000000000115e-08
aF3.3600000000000116e-08
aF3.3700000000000116e-08
aF3.380000000000012e-08
aF3.390000000000012e-08
aF3.400000000000012e-08
aF3.410000000000012e-08
aF3.420000000000012e-08
aF3.430000000000012e-08
aF3.440000000000012e-08
aF3.4500000000000124e-08
aF3.4600000000000125e-08
aF3.4700000000000125e-08
aF3.4800000000000126e-08
aF3.490000000000013e-08
aF3.500000000000013e-08
aF3.510000000000013e-08
aF3.520000000000013e-08
aF3.530000000000013e-08
aF3.540000000000013e-08
aF3.550000000000013e-08
aF3.5600000000000133e-08
aF3.5700000000000134e-08
aF3.5800000000000135e-08
aF3.5900000000000136e-08
aF3.600000000000014e-08
aF3.610000000000014e-08
aF3.620000000000014e-08
aF3.630000000000014e-08
aF3.640000000000014e-08
aF3.650000000000014e-08
aF3.660000000000014e-08
aF3.6700000000000143e-08
aF3.6800000000000144e-08
aF3.6900000000000145e-08
aF3.7000000000000146e-08
aF3.710000000000015e-08
aF3.720000000000015e-08
aF3.730000000000015e-08
aF3.740000000000015e-08
aF3.750000000000015e-08
aF3.760000000000015e-08
aF3.770000000000015e-08
aF3.780000000000015e-08
aF3.7900000000000154e-08
aF3.8000000000000155e-08
aF3.8100000000000156e-08
aF3.820000000000016e-08
aF3.830000000000016e-08
aF3.840000000000016e-08
aF3.850000000000016e-08
aF3.860000000000016e-08
aF3.870000000000016e-08
aF3.880000000000016e-08
aF3.890000000000016e-08
aF3.9000000000000164e-08
aF3.9100000000000165e-08
aF3.9200000000000166e-08
aF3.9300000000000167e-08
aF3.940000000000017e-08
aF3.950000000000017e-08
aF3.960000000000017e-08
aF3.970000000000017e-08
aF3.980000000000017e-08
aF3.990000000000017e-08
aF4.000000000000017e-08
aF4.0100000000000174e-08
aF4.0200000000000175e-08
aF4.0300000000000176e-08
aF4.0400000000000176e-08
aF4.050000000000018e-08
aF4.060000000000018e-08
aF4.070000000000018e-08
aF4.080000000000018e-08
aF4.090000000000018e-08
aF4.100000000000018e-08
aF4.110000000000018e-08
aF4.1200000000000184e-08
aF4.1300000000000185e-08
aF4.1400000000000185e-08
aF4.1500000000000186e-08
aF4.160000000000019e-08
aF4.170000000000019e-08
aF4.180000000000019e-08
aF4.190000000000019e-08
aF4.200000000000019e-08
aF4.210000000000019e-08
aF4.220000000000019e-08
aF4.2300000000000193e-08
aF4.2400000000000194e-08
aF4.2500000000000195e-08
aF4.2600000000000196e-08
aF4.27000000000002e-08
aF4.28000000000002e-08
aF4.29000000000002e-08
aF4.30000000000002e-08
aF4.31000000000002e-08
aF4.32000000000002e-08
aF4.33000000000002e-08
aF4.3400000000000203e-08
aF4.3500000000000204e-08
aF4.3600000000000205e-08
aF4.3700000000000206e-08
aF4.380000000000021e-08
aF4.390000000000021e-08
aF4.400000000000021e-08
aF4.410000000000021e-08
aF4.420000000000021e-08
aF4.430000000000021e-08
aF4.440000000000021e-08
aF4.450000000000021e-08
aF4.4600000000000214e-08
aF4.4700000000000215e-08
aF4.4800000000000216e-08
aF4.490000000000022e-08
aF4.500000000000022e-08
aF4.510000000000022e-08
aF4.520000000000022e-08
aF4.530000000000022e-08
aF4.540000000000022e-08
aF4.550000000000022e-08
aF4.560000000000022e-08
aF4.5700000000000224e-08
aF4.5800000000000225e-08
aF4.5900000000000226e-08
aF4.6000000000000227e-08
aF4.610000000000023e-08
aF4.620000000000023e-08
aF4.630000000000023e-08
aF4.640000000000023e-08
aF4.650000000000023e-08
aF4.660000000000023e-08
aF4.670000000000023e-08
aF4.6800000000000234e-08
aF4.6900000000000235e-08
aF4.7000000000000236e-08
aF4.7100000000000236e-08
aF4.720000000000024e-08
aF4.730000000000024e-08
aF4.740000000000024e-08
aF4.750000000000024e-08
aF4.760000000000024e-08
aF4.770000000000024e-08
aF4.780000000000024e-08
aF4.7900000000000244e-08
aF4.8000000000000245e-08
aF4.8100000000000245e-08
aF4.8200000000000246e-08
aF4.830000000000025e-08
aF4.840000000000025e-08
aF4.850000000000025e-08
aF4.860000000000025e-08
aF4.870000000000025e-08
aF4.880000000000025e-08
aF4.890000000000025e-08
aF4.9000000000000253e-08
aF4.9100000000000254e-08
aF4.9200000000000255e-08
aF4.9300000000000256e-08
aF4.940000000000026e-08
aF4.950000000000026e-08
aF4.960000000000026e-08
aF4.970000000000026e-08
aF4.980000000000026e-08
aF4.990000000000026e-08
aF5.000000000000026e-08
aF5.0100000000000263e-08
aF5.0200000000000264e-08
aF5.0300000000000265e-08
aF5.0400000000000266e-08
aF5.050000000000027e-08
aF5.060000000000027e-08
aF5.070000000000027e-08
aF5.080000000000027e-08
aF5.090000000000027e-08
aF5.100000000000027e-08
aF5.110000000000027e-08
aF5.120000000000027e-08
aF5.1300000000000274e-08
aF5.1400000000000275e-08
aF5.1500000000000276e-08
aF5.160000000000028e-08
aF5.170000000000028e-08
aF5.180000000000028e-08
aF5.190000000000028e-08
aF5.200000000000028e-08
aF5.210000000000028e-08
aF5.220000000000028e-08
aF5.230000000000028e-08
aF5.2400000000000284e-08
aF5.2500000000000285e-08
aF5.2600000000000286e-08
aF5.2700000000000287e-08
aF5.280000000000029e-08
aF5.290000000000029e-08
aF5.300000000000029e-08
aF5.310000000000029e-08
aF5.320000000000029e-08
aF5.330000000000029e-08
aF5.340000000000029e-08
aF5.3500000000000294e-08
aF5.3600000000000295e-08
aF5.3700000000000296e-08
aF5.3800000000000296e-08
aF5.39000000000003e-08
aF5.40000000000003e-08
aF5.41000000000003e-08
aF5.42000000000003e-08
aF5.43000000000003e-08
aF5.44000000000003e-08
aF5.45000000000003e-08
aF5.4600000000000304e-08
aF5.4700000000000305e-08
aF5.4800000000000305e-08
aF5.4900000000000306e-08
aF5.500000000000031e-08
aF5.510000000000031e-08
aF5.520000000000031e-08
aF5.530000000000031e-08
aF5.540000000000031e-08
aF5.550000000000031e-08
aF5.560000000000031e-08
aF5.5700000000000313e-08
aF5.5800000000000314e-08
aF5.5900000000000315e-08
aF5.6000000000000316e-08
aF5.610000000000032e-08
aF5.620000000000032e-08
aF5.630000000000032e-08
aF5.640000000000032e-08
aF5.650000000000032e-08
aF5.660000000000032e-08
aF5.670000000000032e-08
aF5.6800000000000323e-08
aF5.6900000000000324e-08
aF5.7000000000000325e-08
aF5.7100000000000326e-08
aF5.720000000000033e-08
aF5.730000000000033e-08
aF5.740000000000033e-08
aF5.750000000000033e-08
aF5.760000000000033e-08
aF5.770000000000033e-08
aF5.780000000000033e-08
aF5.790000000000033e-08
aF5.8000000000000334e-08
aF5.8100000000000335e-08
aF5.8200000000000336e-08
aF5.830000000000034e-08
aF5.840000000000034e-08
aF5.850000000000034e-08
aF5.860000000000034e-08
aF5.870000000000034e-08
aF5.880000000000034e-08
aF5.890000000000034e-08
aF5.900000000000034e-08
aF5.9100000000000344e-08
aF5.9200000000000345e-08
aF5.9300000000000346e-08
aF5.9400000000000347e-08
aF5.950000000000035e-08
aF5.960000000000035e-08
aF5.970000000000034e-08
aF5.980000000000034e-08
aF5.990000000000033e-08
aF6.000000000000033e-08
aF6.010000000000032e-08
aF6.020000000000031e-08
aF6.030000000000031e-08
aF6.04000000000003e-08
aF6.05000000000003e-08
aF6.060000000000029e-08
aF6.070000000000029e-08
aF6.080000000000028e-08
aF6.090000000000027e-08
aF6.100000000000027e-08
aF6.110000000000026e-08
aF6.120000000000026e-08
aF6.130000000000025e-08
aF6.140000000000025e-08
aF6.150000000000024e-08
aF6.160000000000023e-08
aF6.170000000000023e-08
aF6.180000000000022e-08
aF6.190000000000022e-08
aF6.200000000000021e-08
aF6.21000000000002e-08
aF6.22000000000002e-08
aF6.23000000000002e-08
aF6.240000000000019e-08
aF6.250000000000018e-08
aF6.260000000000018e-08
aF6.270000000000017e-08
aF6.280000000000017e-08
aF6.290000000000016e-08
aF6.300000000000015e-08
aF6.310000000000015e-08
aF6.320000000000014e-08
aF6.330000000000014e-08
aF6.340000000000013e-08
aF6.350000000000013e-08
aF6.360000000000012e-08
aF6.370000000000011e-08
aF6.380000000000011e-08
aF6.39000000000001e-08
aF6.40000000000001e-08
aF6.410000000000009e-08
aF6.420000000000009e-08
aF6.430000000000008e-08
aF6.440000000000007e-08
aF6.450000000000007e-08
aF6.460000000000006e-08
aF6.470000000000006e-08
aF6.480000000000005e-08
aF6.490000000000005e-08
aF6.500000000000004e-08
aF6.510000000000003e-08
aF6.520000000000003e-08
aF6.530000000000002e-08
aF6.540000000000002e-08
aF6.550000000000001e-08
aF6.56e-08
aF6.57e-08
aF6.58e-08
aF6.589999999999999e-08
aF6.599999999999998e-08
aF6.609999999999998e-08
aF6.619999999999997e-08
aF6.629999999999997e-08
aF6.639999999999996e-08
aF6.649999999999995e-08
aF6.659999999999995e-08
aF6.669999999999994e-08
aF6.679999999999994e-08
aF6.689999999999993e-08
aF6.699999999999992e-08
aF6.709999999999992e-08
aF6.719999999999991e-08
aF6.729999999999991e-08
aF6.73999999999999e-08
aF6.74999999999999e-08
aF6.759999999999989e-08
aF6.769999999999988e-08
aF6.779999999999988e-08
aF6.789999999999987e-08
aF6.799999999999987e-08
aF6.809999999999986e-08
aF6.819999999999986e-08
aF6.829999999999985e-08
aF6.839999999999984e-08
aF6.849999999999984e-08
aF6.859999999999983e-08
aF6.869999999999983e-08
aF6.879999999999982e-08
aF6.889999999999982e-08
aF6.899999999999981e-08
aF6.90999999999998e-08
aF6.91999999999998e-08
aF6.929999999999979e-08
aF6.939999999999979e-08
aF6.949999999999978e-08
aF6.959999999999978e-08
aF6.969999999999977e-08
aF6.979999999999976e-08
aF6.989999999999976e-08
aF6.999999999999975e-08
aF7.009999999999975e-08
aF7.019999999999974e-08
aF7.029999999999974e-08
aF7.039999999999973e-08
aF7.049999999999972e-08
aF7.059999999999972e-08
aF7.069999999999971e-08
aF7.079999999999971e-08
aF7.08999999999997e-08
aF7.09999999999997e-08
aF7.109999999999969e-08
aF7.119999999999968e-08
aF7.129999999999968e-08
aF7.139999999999967e-08
aF7.149999999999967e-08
aF7.159999999999966e-08
aF7.169999999999966e-08
aF7.179999999999965e-08
aF7.189999999999964e-08
aF7.199999999999964e-08
aF7.209999999999963e-08
aF7.219999999999963e-08
aF7.229999999999962e-08
aF7.239999999999962e-08
aF7.249999999999961e-08
aF7.25999999999996e-08
aF7.26999999999996e-08
aF7.279999999999959e-08
aF7.289999999999959e-08
aF7.299999999999958e-08
aF7.309999999999958e-08
aF7.319999999999957e-08
aF7.329999999999956e-08
aF7.339999999999956e-08
aF7.349999999999955e-08
aF7.359999999999955e-08
aF7.369999999999954e-08
aF7.379999999999954e-08
aF7.389999999999953e-08
aF7.399999999999952e-08
aF7.409999999999952e-08
aF7.419999999999951e-08
aF7.429999999999951e-08
aF7.43999999999995e-08
aF7.44999999999995e-08
aF7.459999999999949e-08
aF7.469999999999948e-08
aF7.479999999999948e-08
aF7.489999999999947e-08
aF7.499999999999947e-08
aF7.509999999999946e-08
aF7.519999999999946e-08
aF7.529999999999945e-08
aF7.539999999999944e-08
aF7.549999999999944e-08
aF7.559999999999943e-08
aF7.569999999999943e-08
aF7.579999999999942e-08
aF7.589999999999942e-08
aF7.599999999999941e-08
aF7.60999999999994e-08
aF7.61999999999994e-08
aF7.629999999999939e-08
aF7.639999999999939e-08
aF7.649999999999938e-08
aF7.659999999999938e-08
aF7.669999999999937e-08
aF7.679999999999936e-08
aF7.689999999999936e-08
aF7.699999999999935e-08
aF7.709999999999935e-08
aF7.719999999999934e-08
aF7.729999999999934e-08
aF7.739999999999933e-08
aF7.749999999999932e-08
aF7.759999999999932e-08
aF7.769999999999931e-08
aF7.779999999999931e-08
aF7.78999999999993e-08
aF7.79999999999993e-08
aF7.809999999999929e-08
aF7.819999999999928e-08
aF7.829999999999928e-08
aF7.839999999999927e-08
aF7.849999999999927e-08
aF7.859999999999926e-08
aF7.869999999999926e-08
aF7.879999999999925e-08
aF7.889999999999924e-08
aF7.899999999999924e-08
aF7.909999999999923e-08
aF7.919999999999923e-08
aF7.929999999999922e-08
aF7.939999999999922e-08
aF7.949999999999921e-08
aF7.95999999999992e-08
aF7.96999999999992e-08
aF7.979999999999919e-08
aF7.989999999999919e-08
aF7.999999999999918e-08
aF8.009999999999918e-08
aF8.019999999999917e-08
aF8.029999999999916e-08
aF8.039999999999916e-08
aF8.049999999999915e-08
aF8.059999999999915e-08
aF8.069999999999914e-08
aF8.079999999999914e-08
aF8.089999999999913e-08
aF8.099999999999912e-08
aF8.109999999999912e-08
aF8.119999999999911e-08
aF8.129999999999911e-08
aF8.13999999999991e-08
aF8.14999999999991e-08
aF8.159999999999909e-08
aF8.169999999999908e-08
aF8.179999999999908e-08
aF8.189999999999907e-08
aF8.199999999999907e-08
aF8.209999999999906e-08
aF8.219999999999906e-08
aF8.229999999999905e-08
aF8.239999999999904e-08
aF8.249999999999904e-08
aF8.259999999999903e-08
aF8.269999999999903e-08
aF8.279999999999902e-08
aF8.289999999999902e-08
aF8.299999999999901e-08
aF8.3099999999999e-08
aF8.3199999999999e-08
aF8.329999999999899e-08
aF8.339999999999899e-08
aF8.349999999999898e-08
aF8.359999999999898e-08
aF8.369999999999897e-08
aF8.379999999999896e-08
aF8.389999999999896e-08
aF8.399999999999895e-08
aF8.409999999999895e-08
aF8.419999999999894e-08
aF8.429999999999894e-08
aF8.439999999999893e-08
aF8.449999999999892e-08
aF8.459999999999892e-08
aF8.469999999999891e-08
aF8.47999999999989e-08
aF8.48999999999989e-08
aF8.49999999999989e-08
aF8.509999999999889e-08
aF8.519999999999888e-08
aF8.529999999999888e-08
aF8.539999999999887e-08
aF8.549999999999887e-08
aF8.559999999999886e-08
aF8.569999999999885e-08
aF8.579999999999885e-08
aF8.589999999999884e-08
aF8.599999999999884e-08
aF8.609999999999883e-08
aF8.619999999999883e-08
aF8.629999999999882e-08
aF8.639999999999881e-08
aF8.649999999999881e-08
aF8.65999999999988e-08
aF8.66999999999988e-08
aF8.679999999999879e-08
aF8.689999999999879e-08
aF8.699999999999878e-08
aF8.709999999999877e-08
aF8.719999999999877e-08
aF8.729999999999876e-08
aF8.739999999999876e-08
aF8.749999999999875e-08
aF8.759999999999875e-08
aF8.769999999999874e-08
aF8.779999999999873e-08
aF8.789999999999873e-08
aF8.799999999999872e-08
aF8.809999999999872e-08
aF8.819999999999871e-08
aF8.82999999999987e-08
aF8.83999999999987e-08
aF8.84999999999987e-08
aF8.859999999999869e-08
aF8.869999999999868e-08
aF8.879999999999868e-08
aF8.889999999999867e-08
aF8.899999999999867e-08
aF8.909999999999866e-08
aF8.919999999999865e-08
aF8.929999999999865e-08
aF8.939999999999864e-08
aF8.949999999999864e-08
aF8.959999999999863e-08
aF8.969999999999863e-08
aF8.979999999999862e-08
aF8.989999999999861e-08
aF8.999999999999861e-08
aF9.00999999999986e-08
aF9.01999999999986e-08
aF9.029999999999859e-08
aF9.039999999999859e-08
aF9.049999999999858e-08
aF9.059999999999857e-08
aF9.069999999999857e-08
aF9.079999999999856e-08
aF9.089999999999856e-08
aF9.099999999999855e-08
aF9.109999999999855e-08
aF9.119999999999854e-08
aF9.129999999999853e-08
aF9.139999999999853e-08
aF9.149999999999852e-08
aF9.159999999999852e-08
aF9.169999999999851e-08
aF9.17999999999985e-08
aF9.18999999999985e-08
aF9.19999999999985e-08
aF9.209999999999849e-08
aF9.219999999999848e-08
aF9.229999999999848e-08
aF9.239999999999847e-08
aF9.249999999999847e-08
aF9.259999999999846e-08
aF9.269999999999845e-08
aF9.279999999999845e-08
aF9.289999999999844e-08
aF9.299999999999844e-08
aF9.309999999999843e-08
aF9.319999999999843e-08
aF9.329999999999842e-08
aF9.339999999999841e-08
aF9.349999999999841e-08
aF9.35999999999984e-08
aF9.36999999999984e-08
aF9.379999999999839e-08
aF9.389999999999839e-08
aF9.399999999999838e-08
aF9.409999999999837e-08
aF9.419999999999837e-08
aF9.429999999999836e-08
aF9.439999999999836e-08
aF9.449999999999835e-08
aF9.459999999999835e-08
aF9.469999999999834e-08
aF9.479999999999833e-08
aF9.489999999999833e-08
aF9.499999999999832e-08
aF9.509999999999832e-08
aF9.519999999999831e-08
aF9.52999999999983e-08
aF9.53999999999983e-08
aF9.54999999999983e-08
aF9.559999999999829e-08
aF9.569999999999828e-08
aF9.579999999999828e-08
aF9.589999999999827e-08
aF9.599999999999827e-08
aF9.609999999999826e-08
aF9.619999999999825e-08
aF9.629999999999825e-08
aF9.639999999999824e-08
aF9.649999999999824e-08
aF9.659999999999823e-08
aF9.669999999999823e-08
aF9.679999999999822e-08
aF9.689999999999821e-08
aF9.699999999999821e-08
aF9.70999999999982e-08
aF9.71999999999982e-08
aF9.729999999999819e-08
aF9.739999999999819e-08
aF9.749999999999818e-08
aF9.759999999999817e-08
aF9.769999999999817e-08
aF9.779999999999816e-08
aF9.789999999999816e-08
aF9.799999999999815e-08
aF9.809999999999815e-08
aF9.819999999999814e-08
aF9.829999999999813e-08
aF9.839999999999813e-08
aF9.849999999999812e-08
aF9.859999999999812e-08
aF9.869999999999811e-08
aF9.87999999999981e-08
aF9.88999999999981e-08
aF9.89999999999981e-08
aF9.909999999999809e-08
aF9.919999999999808e-08
aF9.929999999999808e-08
aF9.939999999999807e-08
aF9.949999999999807e-08
aF9.959999999999806e-08
aF9.969999999999805e-08
aF9.979999999999805e-08
aF9.989999999999804e-08
aF9.999999999999804e-08
aF1.0009999999999803e-07
aF1.0019999999999803e-07
aF1.0029999999999802e-07
aF1.0039999999999801e-07
aF1.0049999999999801e-07
aF1.00599999999998e-07
aF1.00699999999998e-07
aF1.0079999999999799e-07
aF1.0089999999999799e-07
aF1.0099999999999798e-07
aF1.0109999999999797e-07
aF1.0119999999999797e-07
aF1.0129999999999796e-07
aF1.0139999999999796e-07
aF1.0149999999999795e-07
aF1.0159999999999795e-07
aF1.0169999999999794e-07
aF1.0179999999999793e-07
aF1.0189999999999793e-07
aF1.0199999999999792e-07
aF1.0209999999999792e-07
aF1.0219999999999791e-07
aF1.022999999999979e-07
aF1.023999999999979e-07
aF1.024999999999979e-07
aF1.0259999999999789e-07
aF1.0269999999999788e-07
aF1.0279999999999788e-07
aF1.0289999999999787e-07
aF1.0299999999999787e-07
aF1.0309999999999786e-07
aF1.0319999999999785e-07
aF1.0329999999999785e-07
aF1.0339999999999784e-07
aF1.0349999999999784e-07
aF1.0359999999999783e-07
aF1.0369999999999782e-07
aF1.0379999999999782e-07
aF1.0389999999999781e-07
aF1.0399999999999781e-07
aF1.040999999999978e-07
aF1.041999999999978e-07
aF1.0429999999999779e-07
aF1.0439999999999778e-07
aF1.0449999999999778e-07
aF1.0459999999999777e-07
aF1.0469999999999777e-07
aF1.0479999999999776e-07
aF1.0489999999999776e-07
aF1.0499999999999775e-07
aF1.0509999999999774e-07
aF1.0519999999999774e-07
aF1.0529999999999773e-07
aF1.0539999999999773e-07
aF1.0549999999999772e-07
aF1.0559999999999772e-07
aF1.0569999999999771e-07
aF1.057999999999977e-07
aF1.058999999999977e-07
aF1.059999999999977e-07
aF1.0609999999999769e-07
aF1.0619999999999768e-07
aF1.0629999999999768e-07
aF1.0639999999999767e-07
aF1.0649999999999766e-07
aF1.0659999999999766e-07
aF1.0669999999999765e-07
aF1.0679999999999765e-07
aF1.0689999999999764e-07
aF1.0699999999999764e-07
aF1.0709999999999763e-07
aF1.0719999999999762e-07
aF1.0729999999999762e-07
aF1.0739999999999761e-07
aF1.0749999999999761e-07
aF1.075999999999976e-07
aF1.076999999999976e-07
aF1.0779999999999759e-07
aF1.0789999999999758e-07
aF1.0799999999999758e-07
aF1.0809999999999757e-07
aF1.0819999999999757e-07
aF1.0829999999999756e-07
aF1.0839999999999756e-07
aF1.0849999999999755e-07
aF1.0859999999999754e-07
aF1.0869999999999754e-07
aF1.0879999999999753e-07
aF1.0889999999999753e-07
aF1.0899999999999752e-07
aF1.0909999999999752e-07
aF1.0919999999999751e-07
aF1.092999999999975e-07
aF1.093999999999975e-07
aF1.0949999999999749e-07
aF1.0959999999999749e-07
aF1.0969999999999748e-07
aF1.0979999999999748e-07
aF1.0989999999999747e-07
aF1.0999999999999746e-07
aF1.1009999999999746e-07
aF1.1019999999999745e-07
aF1.1029999999999745e-07
aF1.1039999999999744e-07
aF1.1049999999999744e-07
aF1.1059999999999743e-07
aF1.1069999999999742e-07
aF1.1079999999999742e-07
aF1.1089999999999741e-07
aF1.1099999999999741e-07
aF1.110999999999974e-07
aF1.111999999999974e-07
aF1.1129999999999739e-07
aF1.1139999999999738e-07
aF1.1149999999999738e-07
aF1.1159999999999737e-07
aF1.1169999999999737e-07
aF1.1179999999999736e-07
aF1.1189999999999736e-07
aF1.1199999999999735e-07
aF1.1209999999999734e-07
aF1.1219999999999734e-07
aF1.1229999999999733e-07
aF1.1239999999999733e-07
aF1.1249999999999732e-07
aF1.1259999999999732e-07
aF1.1269999999999731e-07
aF1.127999999999973e-07
aF1.128999999999973e-07
aF1.1299999999999729e-07
aF1.1309999999999729e-07
aF1.1319999999999728e-07
aF1.1329999999999728e-07
aF1.1339999999999727e-07
aF1.1349999999999726e-07
aF1.1359999999999726e-07
aF1.1369999999999725e-07
aF1.1379999999999725e-07
aF1.1389999999999724e-07
aF1.1399999999999724e-07
aF1.1409999999999723e-07
aF1.1419999999999722e-07
aF1.1429999999999722e-07
aF1.1439999999999721e-07
aF1.1449999999999721e-07
aF1.145999999999972e-07
aF1.146999999999972e-07
aF1.1479999999999719e-07
aF1.1489999999999718e-07
aF1.1499999999999718e-07
aF1.1509999999999717e-07
aF1.1519999999999717e-07
aF1.1529999999999716e-07
aF1.1539999999999716e-07
aF1.1549999999999715e-07
aF1.1559999999999714e-07
aF1.1569999999999714e-07
aF1.1579999999999713e-07
aF1.1589999999999713e-07
aF1.1599999999999712e-07
aF1.1609999999999712e-07
aF1.1619999999999711e-07
aF1.162999999999971e-07
aF1.163999999999971e-07
aF1.1649999999999709e-07
aF1.1659999999999709e-07
aF1.1669999999999708e-07
aF1.1679999999999708e-07
aF1.1689999999999707e-07
aF1.1699999999999706e-07
aF1.1709999999999706e-07
aF1.1719999999999705e-07
aF1.1729999999999705e-07
aF1.1739999999999704e-07
aF1.1749999999999704e-07
aF1.1759999999999703e-07
aF1.1769999999999702e-07
aF1.1779999999999702e-07
aF1.1789999999999701e-07
aF1.1799999999999701e-07
aF1.18099999999997e-07
aF1.18199999999997e-07
aF1.1829999999999699e-07
aF1.1839999999999698e-07
aF1.1849999999999698e-07
aF1.1859999999999697e-07
aF1.1869999999999697e-07
aF1.1879999999999696e-07
aF1.1889999999999696e-07
aF1.1899999999999695e-07
aF1.1909999999999694e-07
aF1.1919999999999694e-07
aF1.1929999999999695e-07
aF1.1939999999999695e-07
aF1.1949999999999696e-07
aF1.1959999999999697e-07
aF1.1969999999999698e-07
aF1.1979999999999698e-07
aF1.19899999999997e-07
aF1.19999999999997e-07
aF1.20099999999997e-07
aF1.20199999999997e-07
aF1.2029999999999702e-07
aF1.2039999999999703e-07
aF1.2049999999999704e-07
aF1.2059999999999704e-07
aF1.2069999999999705e-07
aF1.2079999999999706e-07
aF1.2089999999999707e-07
aF1.2099999999999707e-07
aF1.2109999999999708e-07
aF1.211999999999971e-07
aF1.212999999999971e-07
aF1.213999999999971e-07
aF1.214999999999971e-07
aF1.2159999999999712e-07
aF1.2169999999999713e-07
aF1.2179999999999713e-07
aF1.2189999999999714e-07
aF1.2199999999999715e-07
aF1.2209999999999716e-07
aF1.2219999999999716e-07
aF1.2229999999999717e-07
aF1.2239999999999718e-07
aF1.2249999999999719e-07
aF1.225999999999972e-07
aF1.226999999999972e-07
aF1.227999999999972e-07
aF1.2289999999999722e-07
aF1.2299999999999722e-07
aF1.2309999999999723e-07
aF1.2319999999999724e-07
aF1.2329999999999725e-07
aF1.2339999999999725e-07
aF1.2349999999999726e-07
aF1.2359999999999727e-07
aF1.2369999999999728e-07
aF1.2379999999999728e-07
aF1.238999999999973e-07
aF1.239999999999973e-07
aF1.240999999999973e-07
aF1.2419999999999731e-07
aF1.2429999999999732e-07
aF1.2439999999999733e-07
aF1.2449999999999734e-07
aF1.2459999999999734e-07
aF1.2469999999999735e-07
aF1.2479999999999736e-07
aF1.2489999999999737e-07
aF1.2499999999999737e-07
aF1.2509999999999738e-07
aF1.251999999999974e-07
aF1.252999999999974e-07
aF1.253999999999974e-07
aF1.254999999999974e-07
aF1.2559999999999742e-07
aF1.2569999999999743e-07
aF1.2579999999999743e-07
aF1.2589999999999744e-07
aF1.2599999999999745e-07
aF1.2609999999999746e-07
aF1.2619999999999746e-07
aF1.2629999999999747e-07
aF1.2639999999999748e-07
aF1.2649999999999749e-07
aF1.265999999999975e-07
aF1.266999999999975e-07
aF1.267999999999975e-07
aF1.2689999999999752e-07
aF1.2699999999999752e-07
aF1.2709999999999753e-07
aF1.2719999999999754e-07
aF1.2729999999999755e-07
aF1.2739999999999755e-07
aF1.2749999999999756e-07
aF1.2759999999999757e-07
aF1.2769999999999758e-07
aF1.2779999999999758e-07
aF1.278999999999976e-07
aF1.279999999999976e-07
aF1.280999999999976e-07
aF1.2819999999999761e-07
aF1.2829999999999762e-07
aF1.2839999999999763e-07
aF1.2849999999999764e-07
aF1.2859999999999764e-07
aF1.2869999999999765e-07
aF1.2879999999999766e-07
aF1.2889999999999767e-07
aF1.2899999999999767e-07
aF1.2909999999999768e-07
aF1.291999999999977e-07
aF1.292999999999977e-07
aF1.293999999999977e-07
aF1.294999999999977e-07
aF1.2959999999999772e-07
aF1.2969999999999773e-07
aF1.2979999999999773e-07
aF1.2989999999999774e-07
aF1.2999999999999775e-07
aF1.3009999999999776e-07
aF1.3019999999999776e-07
aF1.3029999999999777e-07
aF1.3039999999999778e-07
aF1.304999999999978e-07
aF1.305999999999978e-07
aF1.306999999999978e-07
aF1.307999999999978e-07
aF1.3089999999999782e-07
aF1.3099999999999782e-07
aF1.3109999999999783e-07
aF1.3119999999999784e-07
aF1.3129999999999785e-07
aF1.3139999999999785e-07
aF1.3149999999999786e-07
aF1.3159999999999787e-07
aF1.3169999999999788e-07
aF1.3179999999999788e-07
aF1.318999999999979e-07
aF1.319999999999979e-07
aF1.320999999999979e-07
aF1.3219999999999791e-07
aF1.3229999999999792e-07
aF1.3239999999999793e-07
aF1.3249999999999794e-07
aF1.3259999999999794e-07
aF1.3269999999999795e-07
aF1.3279999999999796e-07
aF1.3289999999999797e-07
aF1.3299999999999797e-07
aF1.3309999999999798e-07
aF1.33199999999998e-07
aF1.33299999999998e-07
aF1.33399999999998e-07
aF1.33499999999998e-07
aF1.3359999999999802e-07
aF1.3369999999999803e-07
aF1.3379999999999803e-07
aF1.3389999999999804e-07
aF1.3399999999999805e-07
aF1.3409999999999806e-07
aF1.3419999999999807e-07
aF1.3429999999999807e-07
aF1.3439999999999808e-07
aF1.344999999999981e-07
aF1.345999999999981e-07
aF1.346999999999981e-07
aF1.347999999999981e-07
aF1.3489999999999812e-07
aF1.3499999999999813e-07
aF1.3509999999999813e-07
aF1.3519999999999814e-07
aF1.3529999999999815e-07
aF1.3539999999999816e-07
aF1.3549999999999816e-07
aF1.3559999999999817e-07
aF1.3569999999999818e-07
aF1.3579999999999819e-07
aF1.358999999999982e-07
aF1.359999999999982e-07
aF1.360999999999982e-07
aF1.3619999999999822e-07
aF1.3629999999999822e-07
aF1.3639999999999823e-07
aF1.3649999999999824e-07
aF1.3659999999999825e-07
aF1.3669999999999825e-07
aF1.3679999999999826e-07
aF1.3689999999999827e-07
aF1.3699999999999828e-07
aF1.3709999999999828e-07
aF1.371999999999983e-07
aF1.372999999999983e-07
aF1.373999999999983e-07
aF1.374999999999983e-07
aF1.3759999999999832e-07
aF1.3769999999999833e-07
aF1.3779999999999834e-07
aF1.3789999999999834e-07
aF1.3799999999999835e-07
aF1.3809999999999836e-07
aF1.3819999999999837e-07
aF1.3829999999999837e-07
aF1.3839999999999838e-07
aF1.384999999999984e-07
aF1.385999999999984e-07
aF1.386999999999984e-07
aF1.387999999999984e-07
aF1.3889999999999842e-07
aF1.3899999999999843e-07
aF1.3909999999999843e-07
aF1.3919999999999844e-07
aF1.3929999999999845e-07
aF1.3939999999999846e-07
aF1.3949999999999846e-07
aF1.3959999999999847e-07
aF1.3969999999999848e-07
aF1.3979999999999849e-07
aF1.398999999999985e-07
aF1.399999999999985e-07
aF1.400999999999985e-07
aF1.4019999999999852e-07
aF1.4029999999999852e-07
aF1.4039999999999853e-07
aF1.4049999999999854e-07
aF1.4059999999999855e-07
aF1.4069999999999855e-07
aF1.4079999999999856e-07
aF1.4089999999999857e-07
aF1.4099999999999858e-07
aF1.4109999999999858e-07
aF1.411999999999986e-07
aF1.412999999999986e-07
aF1.413999999999986e-07
aF1.4149999999999861e-07
aF1.4159999999999862e-07
aF1.4169999999999863e-07
aF1.4179999999999864e-07
aF1.4189999999999864e-07
aF1.4199999999999865e-07
aF1.4209999999999866e-07
aF1.4219999999999867e-07
aF1.4229999999999867e-07
aF1.4239999999999868e-07
aF1.424999999999987e-07
aF1.425999999999987e-07
aF1.426999999999987e-07
aF1.427999999999987e-07
aF1.4289999999999872e-07
aF1.4299999999999873e-07
aF1.4309999999999873e-07
aF1.4319999999999874e-07
aF1.4329999999999875e-07
aF1.4339999999999876e-07
aF1.4349999999999876e-07
aF1.4359999999999877e-07
aF1.4369999999999878e-07
aF1.4379999999999879e-07
aF1.438999999999988e-07
aF1.439999999999988e-07
aF1.440999999999988e-07
aF1.4419999999999882e-07
aF1.4429999999999882e-07
aF1.4439999999999883e-07
aF1.4449999999999884e-07
aF1.4459999999999885e-07
aF1.4469999999999885e-07
aF1.4479999999999886e-07
aF1.4489999999999887e-07
aF1.4499999999999888e-07
aF1.4509999999999888e-07
aF1.451999999999989e-07
aF1.452999999999989e-07
aF1.453999999999989e-07
aF1.4549999999999891e-07
aF1.4559999999999892e-07
aF1.4569999999999893e-07
aF1.4579999999999894e-07
aF1.4589999999999894e-07
aF1.4599999999999895e-07
aF1.4609999999999896e-07
aF1.4619999999999897e-07
aF1.4629999999999897e-07
aF1.4639999999999898e-07
aF1.46499999999999e-07
aF1.46599999999999e-07
aF1.46699999999999e-07
aF1.46799999999999e-07
aF1.4689999999999902e-07
aF1.4699999999999903e-07
aF1.4709999999999903e-07
aF1.4719999999999904e-07
aF1.4729999999999905e-07
aF1.4739999999999906e-07
aF1.4749999999999906e-07
aF1.4759999999999907e-07
aF1.4769999999999908e-07
aF1.477999999999991e-07
aF1.478999999999991e-07
aF1.479999999999991e-07
aF1.480999999999991e-07
aF1.4819999999999912e-07
aF1.4829999999999912e-07
aF1.4839999999999913e-07
aF1.4849999999999914e-07
aF1.4859999999999915e-07
aF1.4869999999999915e-07
aF1.4879999999999916e-07
aF1.4889999999999917e-07
aF1.4899999999999918e-07
aF1.4909999999999918e-07
aF1.491999999999992e-07
aF1.492999999999992e-07
aF1.493999999999992e-07
aF1.4949999999999921e-07
aF1.4959999999999922e-07
aF1.4969999999999923e-07
aF1.4979999999999924e-07
aF1.4989999999999924e-07
aF1.4999999999999925e-07
aF1.5009999999999926e-07
aF1.5019999999999927e-07
aF1.5029999999999927e-07
aF1.5039999999999928e-07
aF1.504999999999993e-07
aF1.505999999999993e-07
aF1.506999999999993e-07
aF1.507999999999993e-07
aF1.5089999999999932e-07
aF1.5099999999999933e-07
aF1.5109999999999933e-07
aF1.5119999999999934e-07
aF1.5129999999999935e-07
aF1.5139999999999936e-07
aF1.5149999999999936e-07
aF1.5159999999999937e-07
aF1.5169999999999938e-07
aF1.517999999999994e-07
aF1.518999999999994e-07
aF1.519999999999994e-07
aF1.520999999999994e-07
aF1.5219999999999942e-07
aF1.5229999999999942e-07
aF1.5239999999999943e-07
aF1.5249999999999944e-07
aF1.5259999999999945e-07
aF1.5269999999999945e-07
aF1.5279999999999946e-07
aF1.5289999999999947e-07
aF1.5299999999999948e-07
aF1.5309999999999948e-07
aF1.531999999999995e-07
aF1.532999999999995e-07
aF1.533999999999995e-07
aF1.5349999999999952e-07
aF1.5359999999999952e-07
aF1.5369999999999953e-07
aF1.5379999999999954e-07
aF1.5389999999999955e-07
aF1.5399999999999955e-07
aF1.5409999999999956e-07
aF1.5419999999999957e-07
aF1.5429999999999958e-07
aF1.5439999999999958e-07
aF1.544999999999996e-07
aF1.545999999999996e-07
aF1.546999999999996e-07
aF1.547999999999996e-07
aF1.5489999999999962e-07
aF1.5499999999999963e-07
aF1.5509999999999964e-07
aF1.5519999999999964e-07
aF1.5529999999999965e-07
aF1.5539999999999966e-07
aF1.5549999999999967e-07
aF1.5559999999999967e-07
aF1.5569999999999968e-07
aF1.557999999999997e-07
aF1.558999999999997e-07
aF1.559999999999997e-07
aF1.560999999999997e-07
aF1.5619999999999972e-07
aF1.5629999999999973e-07
aF1.5639999999999973e-07
aF1.5649999999999974e-07
aF1.5659999999999975e-07
aF1.5669999999999976e-07
aF1.5679999999999976e-07
aF1.5689999999999977e-07
aF1.5699999999999978e-07
aF1.5709999999999979e-07
aF1.571999999999998e-07
aF1.572999999999998e-07
aF1.573999999999998e-07
aF1.5749999999999982e-07
aF1.5759999999999982e-07
aF1.5769999999999983e-07
aF1.5779999999999984e-07
aF1.5789999999999985e-07
aF1.5799999999999985e-07
aF1.5809999999999986e-07
aF1.5819999999999987e-07
aF1.5829999999999988e-07
aF1.5839999999999988e-07
aF1.584999999999999e-07
aF1.585999999999999e-07
aF1.586999999999999e-07
aF1.587999999999999e-07
aF1.5889999999999992e-07
aF1.5899999999999993e-07
aF1.5909999999999994e-07
aF1.5919999999999994e-07
aF1.5929999999999995e-07
aF1.5939999999999996e-07
aF1.5949999999999997e-07
aF1.5959999999999997e-07
aF1.5969999999999998e-07
aF1.598e-07
aF1.599e-07
aF1.6e-07
aF1.601e-07
aF1.6020000000000002e-07
aF1.6030000000000003e-07
aF1.6040000000000003e-07
aF1.6050000000000004e-07
aF1.6060000000000005e-07
aF1.6070000000000006e-07
aF1.6080000000000006e-07
aF1.6090000000000007e-07
aF1.6100000000000008e-07
aF1.6110000000000009e-07
aF1.612000000000001e-07
aF1.613000000000001e-07
aF1.614000000000001e-07
aF1.6150000000000012e-07
aF1.6160000000000012e-07
aF1.6170000000000013e-07
aF1.6180000000000014e-07
aF1.6190000000000015e-07
aF1.6200000000000015e-07
aF1.6210000000000016e-07
aF1.6220000000000017e-07
aF1.6230000000000018e-07
aF1.6240000000000018e-07
aF1.625000000000002e-07
aF1.626000000000002e-07
aF1.627000000000002e-07
aF1.6280000000000021e-07
aF1.6290000000000022e-07
aF1.6300000000000023e-07
aF1.6310000000000024e-07
aF1.6320000000000024e-07
aF1.6330000000000025e-07
aF1.6340000000000026e-07
aF1.6350000000000027e-07
aF1.6360000000000027e-07
aF1.6370000000000028e-07
aF1.638000000000003e-07
aF1.639000000000003e-07
aF1.640000000000003e-07
aF1.641000000000003e-07
aF1.6420000000000032e-07
aF1.6430000000000033e-07
aF1.6440000000000033e-07
aF1.6450000000000034e-07
aF1.6460000000000035e-07
aF1.6470000000000036e-07
aF1.6480000000000036e-07
aF1.6490000000000037e-07
aF1.6500000000000038e-07
aF1.6510000000000039e-07
aF1.652000000000004e-07
aF1.653000000000004e-07
aF1.654000000000004e-07
aF1.6550000000000042e-07
aF1.6560000000000042e-07
aF1.6570000000000043e-07
aF1.6580000000000044e-07
aF1.6590000000000045e-07
aF1.6600000000000045e-07
aF1.6610000000000046e-07
aF1.6620000000000047e-07
aF1.6630000000000048e-07
aF1.6640000000000048e-07
aF1.665000000000005e-07
aF1.666000000000005e-07
aF1.667000000000005e-07
aF1.6680000000000051e-07
aF1.6690000000000052e-07
aF1.6700000000000053e-07
aF1.6710000000000054e-07
aF1.6720000000000054e-07
aF1.6730000000000055e-07
aF1.6740000000000056e-07
aF1.6750000000000057e-07
aF1.6760000000000057e-07
aF1.6770000000000058e-07
aF1.678000000000006e-07
aF1.679000000000006e-07
aF1.680000000000006e-07
aF1.681000000000006e-07
aF1.6820000000000062e-07
aF1.6830000000000063e-07
aF1.6840000000000063e-07
aF1.6850000000000064e-07
aF1.6860000000000065e-07
aF1.6870000000000066e-07
aF1.6880000000000066e-07
aF1.6890000000000067e-07
aF1.6900000000000068e-07
aF1.691000000000007e-07
aF1.692000000000007e-07
aF1.693000000000007e-07
aF1.694000000000007e-07
aF1.6950000000000072e-07
aF1.6960000000000072e-07
aF1.6970000000000073e-07
aF1.6980000000000074e-07
aF1.6990000000000075e-07
aF1.7000000000000075e-07
aF1.7010000000000076e-07
aF1.7020000000000077e-07
aF1.7030000000000078e-07
aF1.7040000000000078e-07
aF1.705000000000008e-07
aF1.706000000000008e-07
aF1.707000000000008e-07
aF1.7080000000000081e-07
aF1.7090000000000082e-07
aF1.7100000000000083e-07
aF1.7110000000000084e-07
aF1.7120000000000084e-07
aF1.7130000000000085e-07
aF1.7140000000000086e-07
aF1.7150000000000087e-07
aF1.7160000000000087e-07
aF1.7170000000000088e-07
aF1.718000000000009e-07
aF1.719000000000009e-07
aF1.720000000000009e-07
aF1.721000000000009e-07
aF1.7220000000000092e-07
aF1.7230000000000093e-07
aF1.7240000000000093e-07
aF1.7250000000000094e-07
aF1.7260000000000095e-07
aF1.7270000000000096e-07
aF1.7280000000000096e-07
aF1.7290000000000097e-07
aF1.7300000000000098e-07
aF1.73100000000001e-07
aF1.73200000000001e-07
aF1.73300000000001e-07
aF1.73400000000001e-07
aF1.7350000000000102e-07
aF1.7360000000000103e-07
aF1.7370000000000103e-07
aF1.7380000000000104e-07
aF1.7390000000000105e-07
aF1.7400000000000106e-07
aF1.7410000000000106e-07
aF1.7420000000000107e-07
aF1.7430000000000108e-07
aF1.7440000000000109e-07
aF1.745000000000011e-07
aF1.746000000000011e-07
aF1.747000000000011e-07
aF1.7480000000000112e-07
aF1.7490000000000112e-07
aF1.7500000000000113e-07
aF1.7510000000000114e-07
aF1.7520000000000115e-07
aF1.7530000000000115e-07
aF1.7540000000000116e-07
aF1.7550000000000117e-07
aF1.7560000000000118e-07
aF1.7570000000000118e-07
aF1.758000000000012e-07
aF1.759000000000012e-07
aF1.760000000000012e-07
aF1.761000000000012e-07
aF1.7620000000000122e-07
aF1.7630000000000123e-07
aF1.7640000000000124e-07
aF1.7650000000000124e-07
aF1.7660000000000125e-07
aF1.7670000000000126e-07
aF1.7680000000000127e-07
aF1.7690000000000127e-07
aF1.7700000000000128e-07
aF1.771000000000013e-07
aF1.772000000000013e-07
aF1.773000000000013e-07
aF1.774000000000013e-07
aF1.7750000000000132e-07
aF1.7760000000000133e-07
aF1.7770000000000133e-07
aF1.7780000000000134e-07
aF1.7790000000000135e-07
aF1.7800000000000136e-07
aF1.7810000000000136e-07
aF1.7820000000000137e-07
aF1.7830000000000138e-07
aF1.7840000000000139e-07
aF1.785000000000014e-07
aF1.786000000000014e-07
aF1.787000000000014e-07
aF1.7880000000000142e-07
aF1.7890000000000142e-07
aF1.7900000000000143e-07
aF1.7910000000000144e-07
aF1.7920000000000145e-07
aF1.7930000000000145e-07
aF1.7940000000000146e-07
aF1.7950000000000147e-07
aF1.7960000000000148e-07
aF1.7970000000000148e-07
aF1.798000000000015e-07
aF1.799000000000015e-07
aF1.800000000000015e-07
aF1.8010000000000151e-07
aF1.8020000000000152e-07
aF1.8030000000000153e-07
aF1.8040000000000154e-07
aF1.8050000000000154e-07
aF1.8060000000000155e-07
aF1.8070000000000156e-07
aF1.8080000000000157e-07
aF1.8090000000000157e-07
aF1.8100000000000158e-07
aF1.811000000000016e-07
aF1.812000000000016e-07
aF1.813000000000016e-07
aF1.814000000000016e-07
aF1.8150000000000162e-07
aF1.8160000000000163e-07
aF1.8170000000000163e-07
aF1.8180000000000164e-07
aF1.8190000000000165e-07
aF1.8200000000000166e-07
aF1.8210000000000166e-07
aF1.8220000000000167e-07
aF1.8230000000000168e-07
aF1.8240000000000169e-07
aF1.825000000000017e-07
aF1.826000000000017e-07
aF1.827000000000017e-07
aF1.8280000000000172e-07
aF1.8290000000000172e-07
aF1.8300000000000173e-07
aF1.8310000000000174e-07
aF1.8320000000000175e-07
aF1.8330000000000175e-07
aF1.8340000000000176e-07
aF1.8350000000000177e-07
aF1.8360000000000178e-07
aF1.8370000000000178e-07
aF1.838000000000018e-07
aF1.839000000000018e-07
aF1.840000000000018e-07
aF1.8410000000000181e-07
aF1.8420000000000182e-07
aF1.8430000000000183e-07
aF1.8440000000000184e-07
aF1.8450000000000184e-07
aF1.8460000000000185e-07
aF1.8470000000000186e-07
aF1.8480000000000187e-07
aF1.8490000000000187e-07
aF1.8500000000000188e-07
aF1.851000000000019e-07
aF1.852000000000019e-07
aF1.853000000000019e-07
aF1.854000000000019e-07
aF1.8550000000000192e-07
aF1.8560000000000193e-07
aF1.8570000000000193e-07
aF1.8580000000000194e-07
aF1.8590000000000195e-07
aF1.8600000000000196e-07
aF1.8610000000000196e-07
aF1.8620000000000197e-07
aF1.8630000000000198e-07
aF1.8640000000000199e-07
aF1.86500000000002e-07
aF1.86600000000002e-07
aF1.86700000000002e-07
aF1.8680000000000202e-07
aF1.8690000000000202e-07
aF1.8700000000000203e-07
aF1.8710000000000204e-07
aF1.8720000000000205e-07
aF1.8730000000000205e-07
aF1.8740000000000206e-07
aF1.8750000000000207e-07
aF1.8760000000000208e-07
aF1.8770000000000208e-07
aF1.878000000000021e-07
aF1.879000000000021e-07
aF1.880000000000021e-07
aF1.8810000000000211e-07
aF1.8820000000000212e-07
aF1.8830000000000213e-07
aF1.8840000000000214e-07
aF1.8850000000000214e-07
aF1.8860000000000215e-07
aF1.8870000000000216e-07
aF1.8880000000000217e-07
aF1.8890000000000217e-07
aF1.8900000000000218e-07
aF1.891000000000022e-07
aF1.892000000000022e-07
aF1.893000000000022e-07
aF1.894000000000022e-07
aF1.8950000000000222e-07
aF1.8960000000000223e-07
aF1.8970000000000223e-07
aF1.8980000000000224e-07
aF1.8990000000000225e-07
aF1.9000000000000226e-07
aF1.9010000000000226e-07
aF1.9020000000000227e-07
aF1.9030000000000228e-07
aF1.904000000000023e-07
aF1.905000000000023e-07
aF1.906000000000023e-07
aF1.907000000000023e-07
aF1.9080000000000232e-07
aF1.9090000000000232e-07
aF1.9100000000000233e-07
aF1.9110000000000234e-07
aF1.9120000000000235e-07
aF1.9130000000000235e-07
aF1.9140000000000236e-07
aF1.9150000000000237e-07
aF1.9160000000000238e-07
aF1.9170000000000238e-07
aF1.918000000000024e-07
aF1.919000000000024e-07
aF1.920000000000024e-07
aF1.9210000000000241e-07
aF1.9220000000000242e-07
aF1.9230000000000243e-07
aF1.9240000000000244e-07
aF1.9250000000000245e-07
aF1.9260000000000245e-07
aF1.9270000000000246e-07
aF1.9280000000000247e-07
aF1.9290000000000248e-07
aF1.9300000000000248e-07
aF1.931000000000025e-07
aF1.932000000000025e-07
aF1.933000000000025e-07
aF1.934000000000025e-07
aF1.9350000000000252e-07
aF1.9360000000000253e-07
aF1.9370000000000254e-07
aF1.9380000000000254e-07
aF1.9390000000000255e-07
aF1.9400000000000256e-07
aF1.9410000000000257e-07
aF1.9420000000000257e-07
aF1.9430000000000258e-07
aF1.944000000000026e-07
aF1.945000000000026e-07
aF1.946000000000026e-07
aF1.947000000000026e-07
aF1.9480000000000262e-07
aF1.9490000000000263e-07
aF1.9500000000000263e-07
aF1.9510000000000264e-07
aF1.9520000000000265e-07
aF1.9530000000000266e-07
aF1.9540000000000266e-07
aF1.9550000000000267e-07
aF1.9560000000000268e-07
aF1.9570000000000269e-07
aF1.958000000000027e-07
aF1.959000000000027e-07
aF1.960000000000027e-07
aF1.9610000000000272e-07
aF1.9620000000000272e-07
aF1.9630000000000273e-07
aF1.9640000000000274e-07
aF1.9650000000000275e-07
aF1.9660000000000275e-07
aF1.9670000000000276e-07
aF1.9680000000000277e-07
aF1.9690000000000278e-07
aF1.9700000000000278e-07
aF1.971000000000028e-07
aF1.972000000000028e-07
aF1.973000000000028e-07
aF1.974000000000028e-07
aF1.9750000000000282e-07
aF1.9760000000000283e-07
aF1.9770000000000284e-07
aF1.9780000000000284e-07
aF1.9790000000000285e-07
aF1.9800000000000286e-07
aF1.9810000000000287e-07
aF1.9820000000000287e-07
aF1.9830000000000288e-07
aF1.984000000000029e-07
aF1.985000000000029e-07
aF1.986000000000029e-07
aF1.987000000000029e-07
aF1.9880000000000292e-07
aF1.9890000000000293e-07
aF1.9900000000000293e-07
aF1.9910000000000294e-07
aF1.9920000000000295e-07
aF1.9930000000000296e-07
aF1.9940000000000296e-07
aF1.9950000000000297e-07
aF1.9960000000000298e-07
aF1.9970000000000299e-07
aF1.99800000000003e-07
aF1.99900000000003e-07
aF2.00000000000003e-07
aF2.0010000000000302e-07
aF2.0020000000000302e-07
aF2.0030000000000303e-07
aF2.0040000000000304e-07
aF2.0050000000000305e-07
aF2.0060000000000305e-07
aF2.0070000000000306e-07
aF2.0080000000000307e-07
aF2.0090000000000308e-07
aF2.0100000000000308e-07
aF2.011000000000031e-07
aF2.012000000000031e-07
aF2.013000000000031e-07
aF2.0140000000000311e-07
aF2.0150000000000312e-07
aF2.0160000000000313e-07
aF2.0170000000000314e-07
aF2.0180000000000314e-07
aF2.0190000000000315e-07
aF2.0200000000000316e-07
aF2.0210000000000317e-07
aF2.0220000000000317e-07
aF2.0230000000000318e-07
aF2.024000000000032e-07
aF2.025000000000032e-07
aF2.026000000000032e-07
aF2.027000000000032e-07
aF2.0280000000000322e-07
aF2.0290000000000323e-07
aF2.0300000000000323e-07
aF2.0310000000000324e-07
aF2.0320000000000325e-07
aF2.0330000000000326e-07
aF2.0340000000000326e-07
aF2.0350000000000327e-07
aF2.0360000000000328e-07
aF2.0370000000000329e-07
aF2.038000000000033e-07
aF2.039000000000033e-07
aF2.040000000000033e-07
aF2.0410000000000332e-07
aF2.0420000000000332e-07
aF2.0430000000000333e-07
aF2.0440000000000334e-07
aF2.0450000000000335e-07
aF2.0460000000000335e-07
aF2.0470000000000336e-07
aF2.0480000000000337e-07
aF2.0490000000000338e-07
aF2.0500000000000338e-07
aF2.051000000000034e-07
aF2.052000000000034e-07
aF2.053000000000034e-07
aF2.0540000000000341e-07
aF2.0550000000000342e-07
aF2.0560000000000343e-07
aF2.0570000000000344e-07
aF2.0580000000000344e-07
aF2.0590000000000345e-07
aF2.0600000000000346e-07
aF2.0610000000000347e-07
aF2.0620000000000347e-07
aF2.0630000000000348e-07
aF2.064000000000035e-07
aF2.065000000000035e-07
aF2.066000000000035e-07
aF2.067000000000035e-07
aF2.0680000000000352e-07
aF2.0690000000000353e-07
aF2.0700000000000353e-07
aF2.0710000000000354e-07
aF2.0720000000000355e-07
aF2.0730000000000356e-07
aF2.0740000000000356e-07
aF2.0750000000000357e-07
aF2.0760000000000358e-07
aF2.077000000000036e-07
aF2.078000000000036e-07
aF2.079000000000036e-07
aF2.080000000000036e-07
aF2.0810000000000362e-07
aF2.0820000000000362e-07
aF2.0830000000000363e-07
aF2.0840000000000364e-07
aF2.0850000000000365e-07
aF2.0860000000000365e-07
aF2.0870000000000366e-07
aF2.0880000000000367e-07
aF2.0890000000000368e-07
aF2.0900000000000368e-07
aF2.091000000000037e-07
aF2.092000000000037e-07
aF2.093000000000037e-07
aF2.0940000000000371e-07
aF2.0950000000000372e-07
aF2.0960000000000373e-07
aF2.0970000000000374e-07
aF2.0980000000000374e-07
aF2.0990000000000375e-07
aF2.1000000000000376e-07
aF2.1010000000000377e-07
aF2.1020000000000377e-07
aF2.1030000000000378e-07
aF2.104000000000038e-07
aF2.105000000000038e-07
aF2.106000000000038e-07
aF2.107000000000038e-07
aF2.1080000000000382e-07
aF2.1090000000000383e-07
aF2.1100000000000383e-07
aF2.1110000000000384e-07
aF2.1120000000000385e-07
aF2.1130000000000386e-07
aF2.1140000000000386e-07
aF2.1150000000000387e-07
aF2.1160000000000388e-07
aF2.117000000000039e-07
aF2.118000000000039e-07
aF2.119000000000039e-07
aF2.120000000000039e-07
aF2.1210000000000392e-07
aF2.1220000000000393e-07
aF2.1230000000000393e-07
aF2.1240000000000394e-07
aF2.1250000000000395e-07
aF2.1260000000000396e-07
aF2.1270000000000396e-07
aF2.1280000000000397e-07
aF2.1290000000000398e-07
aF2.1300000000000399e-07
aF2.13100000000004e-07
aF2.13200000000004e-07
aF2.13300000000004e-07
aF2.1340000000000402e-07
aF2.1350000000000402e-07
aF2.1360000000000403e-07
aF2.1370000000000404e-07
aF2.1380000000000405e-07
aF2.1390000000000405e-07
aF2.1400000000000406e-07
aF2.1410000000000407e-07
aF2.1420000000000408e-07
aF2.1430000000000408e-07
aF2.144000000000041e-07
aF2.145000000000041e-07
aF2.146000000000041e-07
aF2.147000000000041e-07
aF2.1480000000000412e-07
aF2.1490000000000413e-07
aF2.1500000000000414e-07
aF2.1510000000000414e-07
aF2.1520000000000415e-07
aF2.1530000000000416e-07
aF2.1540000000000417e-07
aF2.1550000000000417e-07
aF2.1560000000000418e-07
aF2.157000000000042e-07
aF2.158000000000042e-07
aF2.159000000000042e-07
aF2.160000000000042e-07
aF2.1610000000000422e-07
aF2.1620000000000423e-07
aF2.1630000000000423e-07
aF2.1640000000000424e-07
aF2.1650000000000425e-07
aF2.1660000000000426e-07
aF2.1670000000000426e-07
aF2.1680000000000427e-07
aF2.1690000000000428e-07
aF2.1700000000000429e-07
aF2.171000000000043e-07
aF2.172000000000043e-07
aF2.173000000000043e-07
aF2.1740000000000432e-07
aF2.1750000000000432e-07
aF2.1760000000000433e-07
aF2.1770000000000434e-07
aF2.1780000000000435e-07
aF2.1790000000000435e-07
aF2.1800000000000436e-07
aF2.1810000000000437e-07
aF2.1820000000000438e-07
aF2.1830000000000438e-07
aF2.184000000000044e-07
aF2.185000000000044e-07
aF2.186000000000044e-07
aF2.1870000000000441e-07
aF2.1880000000000442e-07
aF2.1890000000000443e-07
aF2.1900000000000444e-07
aF2.1910000000000444e-07
aF2.1920000000000445e-07
aF2.1930000000000446e-07
aF2.1940000000000447e-07
aF2.1950000000000447e-07
aF2.1960000000000448e-07
aF2.197000000000045e-07
aF2.198000000000045e-07
aF2.199000000000045e-07
aF2.200000000000045e-07
aF2.2010000000000452e-07
aF2.2020000000000453e-07
aF2.2030000000000453e-07
aF2.2040000000000454e-07
aF2.2050000000000455e-07
aF2.2060000000000456e-07
aF2.2070000000000456e-07
aF2.2080000000000457e-07
aF2.2090000000000458e-07
aF2.2100000000000459e-07
aF2.211000000000046e-07
aF2.212000000000046e-07
aF2.213000000000046e-07
aF2.2140000000000462e-07
aF2.2150000000000462e-07
aF2.2160000000000463e-07
aF2.2170000000000464e-07
aF2.2180000000000465e-07
aF2.2190000000000465e-07
aF2.2200000000000466e-07
aF2.2210000000000467e-07
aF2.2220000000000468e-07
aF2.2230000000000468e-07
aF2.224000000000047e-07
aF2.225000000000047e-07
aF2.226000000000047e-07
aF2.2270000000000471e-07
aF2.2280000000000472e-07
aF2.2290000000000473e-07
aF2.2300000000000474e-07
aF2.2310000000000474e-07
aF2.2320000000000475e-07
aF2.2330000000000476e-07
aF2.2340000000000477e-07
aF2.2350000000000477e-07
aF2.2360000000000478e-07
aF2.237000000000048e-07
aF2.238000000000048e-07
aF2.239000000000048e-07
aF2.240000000000048e-07
aF2.2410000000000482e-07
aF2.2420000000000483e-07
aF2.2430000000000483e-07
aF2.2440000000000484e-07
aF2.2450000000000485e-07
aF2.2460000000000486e-07
aF2.2470000000000486e-07
aF2.2480000000000487e-07
aF2.2490000000000488e-07
aF2.2500000000000489e-07
aF2.251000000000049e-07
aF2.252000000000049e-07
aF2.253000000000049e-07
aF2.2540000000000492e-07
aF2.2550000000000492e-07
aF2.2560000000000493e-07
aF2.2570000000000494e-07
aF2.2580000000000495e-07
aF2.2590000000000495e-07
aF2.2600000000000496e-07
aF2.2610000000000497e-07
aF2.2620000000000498e-07
aF2.2630000000000498e-07
aF2.26400000000005e-07
aF2.26500000000005e-07
aF2.26600000000005e-07
aF2.2670000000000501e-07
aF2.2680000000000502e-07
aF2.2690000000000503e-07
aF2.2700000000000504e-07
aF2.2710000000000504e-07
aF2.2720000000000505e-07
aF2.2730000000000506e-07
aF2.2740000000000507e-07
aF2.2750000000000507e-07
aF2.2760000000000508e-07
aF2.277000000000051e-07
aF2.278000000000051e-07
aF2.279000000000051e-07
aF2.280000000000051e-07
aF2.2810000000000512e-07
aF2.2820000000000513e-07
aF2.2830000000000513e-07
aF2.2840000000000514e-07
aF2.2850000000000515e-07
aF2.2860000000000516e-07
aF2.2870000000000516e-07
aF2.2880000000000517e-07
aF2.2890000000000518e-07
aF2.290000000000052e-07
aF2.291000000000052e-07
aF2.292000000000052e-07
aF2.293000000000052e-07
aF2.2940000000000522e-07
aF2.2950000000000522e-07
aF2.2960000000000523e-07
aF2.2970000000000524e-07
aF2.2980000000000525e-07
aF2.2990000000000525e-07
aF2.3000000000000526e-07
aF2.3010000000000527e-07
aF2.3020000000000528e-07
aF2.3030000000000528e-07
aF2.304000000000053e-07
aF2.305000000000053e-07
aF2.306000000000053e-07
aF2.3070000000000531e-07
aF2.3080000000000532e-07
aF2.3090000000000533e-07
aF2.3100000000000534e-07
aF2.3110000000000535e-07
aF2.3120000000000535e-07
aF2.3130000000000536e-07
aF2.3140000000000537e-07
aF2.3150000000000538e-07
aF2.3160000000000538e-07
aF2.317000000000054e-07
aF2.318000000000054e-07
aF2.319000000000054e-07
aF2.320000000000054e-07
aF2.3210000000000542e-07
aF2.3220000000000543e-07
aF2.3230000000000544e-07
aF2.3240000000000544e-07
aF2.3250000000000545e-07
aF2.3260000000000546e-07
aF2.3270000000000547e-07
aF2.3280000000000547e-07
aF2.3290000000000548e-07
aF2.330000000000055e-07
aF2.331000000000055e-07
aF2.332000000000055e-07
aF2.333000000000055e-07
aF2.3340000000000552e-07
aF2.3350000000000553e-07
aF2.3360000000000553e-07
aF2.3370000000000554e-07
aF2.3380000000000555e-07
aF2.3390000000000556e-07
aF2.3400000000000556e-07
aF2.3410000000000557e-07
aF2.3420000000000558e-07
aF2.3430000000000559e-07
aF2.344000000000056e-07
aF2.345000000000056e-07
aF2.346000000000056e-07
aF2.3470000000000562e-07
aF2.3480000000000562e-07
aF2.3490000000000563e-07
aF2.3500000000000564e-07
aF2.3510000000000565e-07
aF2.3520000000000565e-07
aF2.3530000000000566e-07
aF2.3540000000000567e-07
aF2.3550000000000568e-07
aF2.3560000000000568e-07
aF2.357000000000057e-07
aF2.358000000000057e-07
aF2.359000000000057e-07
aF2.360000000000057e-07
aF2.3610000000000572e-07
aF2.3620000000000573e-07
aF2.3630000000000574e-07
aF2.3640000000000574e-07
aF2.3650000000000575e-07
aF2.3660000000000576e-07
aF2.3670000000000577e-07
aF2.3680000000000577e-07
aF2.3690000000000578e-07
aF2.370000000000058e-07
aF2.371000000000058e-07
aF2.372000000000058e-07
aF2.373000000000058e-07
aF2.3740000000000582e-07
aF2.3750000000000583e-07
aF2.3760000000000583e-07
aF2.3770000000000584e-07
aF2.3780000000000585e-07
aF2.3790000000000586e-07
aF2.3800000000000586e-07
aF2.3810000000000587e-07
aF2.3820000000000588e-07
aF2.3830000000000589e-07
aF2.384000000000059e-07
aF2.385000000000059e-07
aF2.386000000000059e-07
aF2.387000000000059e-07
aF2.388000000000059e-07
aF2.3890000000000593e-07
aF2.3900000000000594e-07
aF2.3910000000000595e-07
aF2.3920000000000595e-07
aF2.3930000000000596e-07
aF2.3940000000000597e-07
aF2.39500000000006e-07
aF2.39600000000006e-07
aF2.39700000000006e-07
aF2.39800000000006e-07
aF2.39900000000006e-07
aF2.40000000000006e-07
aF2.40100000000006e-07
aF2.4020000000000603e-07
aF2.4030000000000604e-07
aF2.4040000000000604e-07
aF2.4050000000000605e-07
aF2.4060000000000606e-07
aF2.4070000000000607e-07
aF2.408000000000061e-07
aF2.409000000000061e-07
aF2.410000000000061e-07
aF2.411000000000061e-07
aF2.412000000000061e-07
aF2.413000000000061e-07
aF2.414000000000061e-07
aF2.415000000000061e-07
aF2.4160000000000613e-07
aF2.4170000000000614e-07
aF2.4180000000000615e-07
aF2.4190000000000616e-07
aF2.4200000000000616e-07
aF2.4210000000000617e-07
aF2.422000000000062e-07
aF2.423000000000062e-07
aF2.424000000000062e-07
aF2.425000000000062e-07
aF2.426000000000062e-07
aF2.427000000000062e-07
aF2.428000000000062e-07
aF2.4290000000000623e-07
aF2.4300000000000624e-07
aF2.4310000000000625e-07
aF2.4320000000000625e-07
aF2.4330000000000626e-07
aF2.4340000000000627e-07
aF2.435000000000063e-07
aF2.436000000000063e-07
aF2.437000000000063e-07
aF2.438000000000063e-07
aF2.439000000000063e-07
aF2.440000000000063e-07
aF2.441000000000063e-07
aF2.4420000000000633e-07
aF2.4430000000000634e-07
aF2.4440000000000634e-07
aF2.4450000000000635e-07
aF2.4460000000000636e-07
aF2.4470000000000637e-07
aF2.448000000000064e-07
aF2.449000000000064e-07
aF2.450000000000064e-07
aF2.451000000000064e-07
aF2.452000000000064e-07
aF2.453000000000064e-07
aF2.454000000000064e-07
aF2.4550000000000643e-07
aF2.4560000000000643e-07
aF2.4570000000000644e-07
aF2.4580000000000645e-07
aF2.4590000000000646e-07
aF2.4600000000000646e-07
aF2.4610000000000647e-07
aF2.462000000000065e-07
aF2.463000000000065e-07
aF2.464000000000065e-07
aF2.465000000000065e-07
aF2.466000000000065e-07
aF2.467000000000065e-07
aF2.468000000000065e-07
aF2.4690000000000653e-07
aF2.4700000000000654e-07
aF2.4710000000000655e-07
aF2.4720000000000655e-07
aF2.4730000000000656e-07
aF2.4740000000000657e-07
aF2.475000000000066e-07
aF2.476000000000066e-07
aF2.477000000000066e-07
aF2.478000000000066e-07
aF2.479000000000066e-07
aF2.480000000000066e-07
aF2.481000000000066e-07
aF2.4820000000000663e-07
aF2.4830000000000664e-07
aF2.4840000000000664e-07
aF2.4850000000000665e-07
aF2.4860000000000666e-07
aF2.4870000000000667e-07
aF2.488000000000067e-07
aF2.489000000000067e-07
aF2.490000000000067e-07
aF2.491000000000067e-07
aF2.492000000000067e-07
aF2.493000000000067e-07
aF2.494000000000067e-07
aF2.4950000000000673e-07
aF2.4960000000000673e-07
aF2.4970000000000674e-07
aF2.4980000000000675e-07
aF2.4990000000000676e-07
aF2.5000000000000676e-07
aF2.5010000000000677e-07
aF2.502000000000068e-07
aF2.503000000000068e-07
aF2.504000000000068e-07
aF2.505000000000068e-07
aF2.506000000000068e-07
aF2.507000000000068e-07
aF2.508000000000068e-07
aF2.5090000000000683e-07
aF2.5100000000000684e-07
aF2.5110000000000685e-07
aF2.5120000000000686e-07
aF2.5130000000000686e-07
aF2.5140000000000687e-07
aF2.515000000000069e-07
aF2.516000000000069e-07
aF2.517000000000069e-07
aF2.518000000000069e-07
aF2.519000000000069e-07
aF2.520000000000069e-07
aF2.521000000000069e-07
aF2.5220000000000693e-07
aF2.5230000000000694e-07
aF2.5240000000000695e-07
aF2.5250000000000695e-07
aF2.5260000000000696e-07
aF2.5270000000000697e-07
aF2.52800000000007e-07
aF2.52900000000007e-07
aF2.53000000000007e-07
aF2.53100000000007e-07
aF2.53200000000007e-07
aF2.53300000000007e-07
aF2.53400000000007e-07
aF2.5350000000000703e-07
aF2.5360000000000704e-07
aF2.5370000000000704e-07
aF2.5380000000000705e-07
aF2.5390000000000706e-07
aF2.5400000000000707e-07
aF2.5410000000000707e-07
aF2.542000000000071e-07
aF2.543000000000071e-07
aF2.544000000000071e-07
aF2.545000000000071e-07
aF2.546000000000071e-07
aF2.547000000000071e-07
aF2.548000000000071e-07
aF2.5490000000000713e-07
aF2.5500000000000714e-07
aF2.5510000000000715e-07
aF2.5520000000000716e-07
aF2.5530000000000716e-07
aF2.5540000000000717e-07
aF2.555000000000072e-07
aF2.556000000000072e-07
aF2.557000000000072e-07
aF2.558000000000072e-07
aF2.559000000000072e-07
aF2.560000000000072e-07
aF2.561000000000072e-07
aF2.5620000000000723e-07
aF2.5630000000000724e-07
aF2.5640000000000725e-07
aF2.5650000000000725e-07
aF2.5660000000000726e-07
aF2.5670000000000727e-07
aF2.568000000000073e-07
aF2.569000000000073e-07
aF2.570000000000073e-07
aF2.571000000000073e-07
aF2.572000000000073e-07
aF2.573000000000073e-07
aF2.574000000000073e-07
aF2.5750000000000733e-07
aF2.5760000000000734e-07
aF2.5770000000000734e-07
aF2.5780000000000735e-07
aF2.5790000000000736e-07
aF2.5800000000000737e-07
aF2.5810000000000737e-07
aF2.582000000000074e-07
aF2.583000000000074e-07
aF2.584000000000074e-07
aF2.585000000000074e-07
aF2.586000000000074e-07
aF2.587000000000074e-07
aF2.588000000000074e-07
aF2.5890000000000743e-07
aF2.5900000000000744e-07
aF2.5910000000000745e-07
aF2.5920000000000746e-07
aF2.5930000000000746e-07
aF2.5940000000000747e-07
aF2.595000000000075e-07
aF2.596000000000075e-07
aF2.597000000000075e-07
aF2.598000000000075e-07
aF2.599000000000075e-07
aF2.600000000000075e-07
aF2.601000000000075e-07
aF2.6020000000000753e-07
aF2.6030000000000754e-07
aF2.6040000000000755e-07
aF2.6050000000000755e-07
aF2.6060000000000756e-07
aF2.6070000000000757e-07
aF2.608000000000076e-07
aF2.609000000000076e-07
aF2.610000000000076e-07
aF2.611000000000076e-07
aF2.612000000000076e-07
aF2.613000000000076e-07
aF2.614000000000076e-07
aF2.6150000000000763e-07
aF2.6160000000000764e-07
aF2.6170000000000764e-07
aF2.6180000000000765e-07
aF2.6190000000000766e-07
aF2.6200000000000767e-07
aF2.621000000000077e-07
aF2.622000000000077e-07
aF2.623000000000077e-07
aF2.624000000000077e-07
aF2.625000000000077e-07
aF2.626000000000077e-07
aF2.627000000000077e-07
aF2.6280000000000773e-07
aF2.6290000000000773e-07
aF2.6300000000000774e-07
aF2.6310000000000775e-07
aF2.6320000000000776e-07
aF2.6330000000000776e-07
aF2.6340000000000777e-07
aF2.635000000000078e-07
aF2.636000000000078e-07
aF2.637000000000078e-07
aF2.638000000000078e-07
aF2.639000000000078e-07
aF2.640000000000078e-07
aF2.641000000000078e-07
aF2.6420000000000783e-07
aF2.6430000000000784e-07
aF2.6440000000000785e-07
aF2.6450000000000785e-07
aF2.6460000000000786e-07
aF2.6470000000000787e-07
aF2.648000000000079e-07
aF2.649000000000079e-07
aF2.650000000000079e-07
aF2.651000000000079e-07
aF2.652000000000079e-07
aF2.653000000000079e-07
aF2.654000000000079e-07
aF2.6550000000000793e-07
aF2.6560000000000794e-07
aF2.6570000000000794e-07
aF2.6580000000000795e-07
aF2.6590000000000796e-07
aF2.6600000000000797e-07
aF2.66100000000008e-07
aF2.66200000000008e-07
aF2.66300000000008e-07
aF2.66400000000008e-07
aF2.66500000000008e-07
aF2.66600000000008e-07
aF2.66700000000008e-07
aF2.6680000000000803e-07
aF2.6690000000000803e-07
aF2.6700000000000804e-07
aF2.6710000000000805e-07
aF2.6720000000000806e-07
aF2.6730000000000806e-07
aF2.6740000000000807e-07
aF2.675000000000081e-07
aF2.676000000000081e-07
aF2.677000000000081e-07
aF2.678000000000081e-07
aF2.679000000000081e-07
aF2.680000000000081e-07
aF2.681000000000081e-07
aF2.6820000000000813e-07
aF2.6830000000000814e-07
aF2.6840000000000815e-07
aF2.6850000000000815e-07
aF2.6860000000000816e-07
aF2.6870000000000817e-07
aF2.688000000000082e-07
aF2.689000000000082e-07
aF2.690000000000082e-07
aF2.691000000000082e-07
aF2.692000000000082e-07
aF2.693000000000082e-07
aF2.694000000000082e-07
aF2.6950000000000823e-07
aF2.6960000000000824e-07
aF2.6970000000000824e-07
aF2.6980000000000825e-07
aF2.6990000000000826e-07
aF2.7000000000000827e-07
aF2.701000000000083e-07
aF2.702000000000083e-07
aF2.703000000000083e-07
aF2.704000000000083e-07
aF2.705000000000083e-07
aF2.706000000000083e-07
aF2.707000000000083e-07
aF2.7080000000000833e-07
aF2.7090000000000834e-07
aF2.7100000000000834e-07
aF2.7110000000000835e-07
aF2.7120000000000836e-07
aF2.7130000000000837e-07
aF2.7140000000000837e-07
aF2.715000000000084e-07
aF2.716000000000084e-07
aF2.717000000000084e-07
aF2.718000000000084e-07
aF2.719000000000084e-07
aF2.720000000000084e-07
aF2.721000000000084e-07
aF2.7220000000000843e-07
aF2.7230000000000844e-07
aF2.7240000000000845e-07
aF2.7250000000000846e-07
aF2.7260000000000846e-07
aF2.7270000000000847e-07
aF2.728000000000085e-07
aF2.729000000000085e-07
aF2.730000000000085e-07
aF2.731000000000085e-07
aF2.732000000000085e-07
aF2.733000000000085e-07
aF2.734000000000085e-07
aF2.7350000000000853e-07
aF2.7360000000000854e-07
aF2.7370000000000855e-07
aF2.7380000000000855e-07
aF2.7390000000000856e-07
aF2.7400000000000857e-07
aF2.741000000000086e-07
aF2.742000000000086e-07
aF2.743000000000086e-07
aF2.744000000000086e-07
aF2.745000000000086e-07
aF2.746000000000086e-07
aF2.747000000000086e-07
aF2.7480000000000863e-07
aF2.7490000000000864e-07
aF2.7500000000000864e-07
aF2.7510000000000865e-07
aF2.7520000000000866e-07
aF2.7530000000000867e-07
aF2.7540000000000867e-07
aF2.755000000000087e-07
aF2.756000000000087e-07
aF2.757000000000087e-07
aF2.758000000000087e-07
aF2.759000000000087e-07
aF2.760000000000087e-07
aF2.761000000000087e-07
aF2.7620000000000873e-07
aF2.7630000000000874e-07
aF2.7640000000000875e-07
aF2.7650000000000876e-07
aF2.7660000000000876e-07
aF2.7670000000000877e-07
aF2.768000000000088e-07
aF2.769000000000088e-07
aF2.770000000000088e-07
aF2.771000000000088e-07
aF2.772000000000088e-07
aF2.773000000000088e-07
aF2.774000000000088e-07
aF2.7750000000000883e-07
aF2.7760000000000884e-07
aF2.7770000000000885e-07
aF2.7780000000000885e-07
aF2.7790000000000886e-07
aF2.7800000000000887e-07
aF2.781000000000089e-07
aF2.782000000000089e-07
aF2.783000000000089e-07
aF2.784000000000089e-07
aF2.785000000000089e-07
aF2.786000000000089e-07
aF2.787000000000089e-07
aF2.7880000000000893e-07
aF2.7890000000000894e-07
aF2.7900000000000894e-07
aF2.7910000000000895e-07
aF2.7920000000000896e-07
aF2.7930000000000897e-07
aF2.79400000000009e-07
aF2.79500000000009e-07
aF2.79600000000009e-07
aF2.79700000000009e-07
aF2.79800000000009e-07
aF2.79900000000009e-07
aF2.80000000000009e-07
aF2.80100000000009e-07
aF2.8020000000000903e-07
aF2.8030000000000904e-07
aF2.8040000000000905e-07
aF2.8050000000000906e-07
aF2.8060000000000906e-07
aF2.8070000000000907e-07
aF2.808000000000091e-07
aF2.809000000000091e-07
aF2.810000000000091e-07
aF2.811000000000091e-07
aF2.812000000000091e-07
aF2.813000000000091e-07
aF2.814000000000091e-07
aF2.8150000000000913e-07
aF2.8160000000000914e-07
aF2.8170000000000915e-07
aF2.8180000000000915e-07
aF2.8190000000000916e-07
aF2.8200000000000917e-07
aF2.821000000000092e-07
aF2.822000000000092e-07
aF2.823000000000092e-07
aF2.824000000000092e-07
aF2.825000000000092e-07
aF2.826000000000092e-07
aF2.827000000000092e-07
aF2.8280000000000923e-07
aF2.8290000000000924e-07
aF2.8300000000000924e-07
aF2.8310000000000925e-07
aF2.8320000000000926e-07
aF2.8330000000000927e-07
aF2.834000000000093e-07
aF2.835000000000093e-07
aF2.836000000000093e-07
aF2.837000000000093e-07
aF2.838000000000093e-07
aF2.839000000000093e-07
aF2.840000000000093e-07
aF2.8410000000000933e-07
aF2.8420000000000933e-07
aF2.8430000000000934e-07
aF2.8440000000000935e-07
aF2.8450000000000936e-07
aF2.8460000000000936e-07
aF2.8470000000000937e-07
aF2.848000000000094e-07
aF2.849000000000094e-07
aF2.850000000000094e-07
aF2.851000000000094e-07
aF2.852000000000094e-07
aF2.853000000000094e-07
aF2.854000000000094e-07
aF2.8550000000000943e-07
aF2.8560000000000944e-07
aF2.8570000000000945e-07
aF2.8580000000000945e-07
aF2.8590000000000946e-07
aF2.8600000000000947e-07
aF2.861000000000095e-07
aF2.862000000000095e-07
aF2.863000000000095e-07
aF2.864000000000095e-07
aF2.865000000000095e-07
aF2.866000000000095e-07
aF2.867000000000095e-07
aF2.8680000000000953e-07
aF2.8690000000000954e-07
aF2.8700000000000954e-07
aF2.8710000000000955e-07
aF2.8720000000000956e-07
aF2.8730000000000957e-07
aF2.874000000000096e-07
aF2.875000000000096e-07
aF2.876000000000096e-07
aF2.877000000000096e-07
aF2.878000000000096e-07
aF2.879000000000096e-07
aF2.880000000000096e-07
aF2.8810000000000963e-07
aF2.8820000000000963e-07
aF2.8830000000000964e-07
aF2.8840000000000965e-07
aF2.8850000000000966e-07
aF2.8860000000000966e-07
aF2.8870000000000967e-07
aF2.888000000000097e-07
aF2.889000000000097e-07
aF2.890000000000097e-07
aF2.891000000000097e-07
aF2.892000000000097e-07
aF2.893000000000097e-07
aF2.894000000000097e-07
aF2.8950000000000973e-07
aF2.8960000000000974e-07
aF2.8970000000000975e-07
aF2.8980000000000976e-07
aF2.8990000000000976e-07
aF2.9000000000000977e-07
aF2.901000000000098e-07
aF2.902000000000098e-07
aF2.903000000000098e-07
aF2.904000000000098e-07
aF2.905000000000098e-07
aF2.906000000000098e-07
aF2.907000000000098e-07
aF2.9080000000000983e-07
aF2.9090000000000984e-07
aF2.9100000000000985e-07
aF2.9110000000000985e-07
aF2.9120000000000986e-07
aF2.9130000000000987e-07
aF2.914000000000099e-07
aF2.915000000000099e-07
aF2.916000000000099e-07
aF2.917000000000099e-07
aF2.918000000000099e-07
aF2.919000000000099e-07
aF2.920000000000099e-07
aF2.9210000000000993e-07
aF2.9220000000000994e-07
aF2.9230000000000994e-07
aF2.9240000000000995e-07
aF2.9250000000000996e-07
aF2.9260000000000997e-07
aF2.9270000000000997e-07
aF2.9280000000001e-07
aF2.9290000000001e-07
aF2.9300000000001e-07
aF2.9310000000001e-07
aF2.9320000000001e-07
aF2.9330000000001e-07
aF2.9340000000001e-07
aF2.9350000000001003e-07
aF2.9360000000001004e-07
aF2.9370000000001005e-07
aF2.9380000000001006e-07
aF2.9390000000001006e-07
aF2.9400000000001007e-07
aF2.941000000000101e-07
aF2.942000000000101e-07
aF2.943000000000101e-07
aF2.944000000000101e-07
aF2.945000000000101e-07
aF2.946000000000101e-07
aF2.947000000000101e-07
aF2.9480000000001013e-07
aF2.9490000000001014e-07
aF2.9500000000001015e-07
aF2.9510000000001015e-07
aF2.9520000000001016e-07
aF2.9530000000001017e-07
aF2.954000000000102e-07
aF2.955000000000102e-07
aF2.956000000000102e-07
aF2.957000000000102e-07
aF2.958000000000102e-07
aF2.959000000000102e-07
aF2.960000000000102e-07
aF2.9610000000001023e-07
aF2.9620000000001024e-07
aF2.9630000000001024e-07
aF2.9640000000001025e-07
aF2.9650000000001026e-07
aF2.9660000000001027e-07
aF2.9670000000001027e-07
aF2.968000000000103e-07
aF2.969000000000103e-07
aF2.970000000000103e-07
aF2.971000000000103e-07
aF2.972000000000103e-07
aF2.973000000000103e-07
aF2.974000000000103e-07
aF2.9750000000001033e-07
aF2.9760000000001034e-07
aF2.9770000000001035e-07
aF2.9780000000001036e-07
aF2.9790000000001036e-07
aF2.9800000000001037e-07
aF2.981000000000104e-07
aF2.982000000000104e-07
aF2.983000000000104e-07
aF2.984000000000104e-07
aF2.985000000000104e-07
aF2.986000000000104e-07
aF2.987000000000104e-07
aF2.9880000000001043e-07
aF2.9890000000001044e-07
aF2.9900000000001045e-07
aF2.9910000000001045e-07
aF2.9920000000001046e-07
aF2.9930000000001047e-07
aF2.994000000000105e-07
aF2.995000000000105e-07
aF2.996000000000105e-07
aF2.997000000000105e-07
aF2.998000000000105e-07
aF2.999000000000105e-07
aF3.000000000000105e-07
aF3.0010000000001053e-07
aF3.0020000000001054e-07
aF3.0030000000001054e-07
aF3.0040000000001055e-07
aF3.0050000000001056e-07
aF3.0060000000001057e-07
aF3.007000000000106e-07
aF3.008000000000106e-07
aF3.009000000000106e-07
aF3.010000000000106e-07
aF3.011000000000106e-07
aF3.012000000000106e-07
aF3.013000000000106e-07
aF3.0140000000001063e-07
aF3.0150000000001063e-07
aF3.0160000000001064e-07
aF3.0170000000001065e-07
aF3.0180000000001066e-07
aF3.0190000000001066e-07
aF3.0200000000001067e-07
aF3.021000000000107e-07
aF3.022000000000107e-07
aF3.023000000000107e-07
aF3.024000000000107e-07
aF3.025000000000107e-07
aF3.026000000000107e-07
aF3.027000000000107e-07
aF3.0280000000001073e-07
aF3.0290000000001074e-07
aF3.0300000000001075e-07
aF3.0310000000001075e-07
aF3.0320000000001076e-07
aF3.0330000000001077e-07
aF3.034000000000108e-07
aF3.035000000000108e-07
aF3.036000000000108e-07
aF3.037000000000108e-07
aF3.038000000000108e-07
aF3.039000000000108e-07
aF3.040000000000108e-07
aF3.0410000000001083e-07
aF3.0420000000001084e-07
aF3.0430000000001084e-07
aF3.0440000000001085e-07
aF3.0450000000001086e-07
aF3.0460000000001087e-07
aF3.047000000000109e-07
aF3.048000000000109e-07
aF3.049000000000109e-07
aF3.050000000000109e-07
aF3.051000000000109e-07
aF3.052000000000109e-07
aF3.053000000000109e-07
aF3.0540000000001093e-07
aF3.0550000000001093e-07
aF3.0560000000001094e-07
aF3.0570000000001095e-07
aF3.0580000000001096e-07
aF3.0590000000001096e-07
aF3.0600000000001097e-07
aF3.06100000000011e-07
aF3.06200000000011e-07
aF3.06300000000011e-07
aF3.06400000000011e-07
aF3.06500000000011e-07
aF3.06600000000011e-07
aF3.06700000000011e-07
aF3.0680000000001103e-07
aF3.0690000000001104e-07
aF3.0700000000001105e-07
aF3.0710000000001105e-07
aF3.0720000000001106e-07
aF3.0730000000001107e-07
aF3.074000000000111e-07
aF3.075000000000111e-07
aF3.076000000000111e-07
aF3.077000000000111e-07
aF3.078000000000111e-07
aF3.079000000000111e-07
aF3.080000000000111e-07
aF3.0810000000001113e-07
aF3.0820000000001114e-07
aF3.0830000000001114e-07
aF3.0840000000001115e-07
aF3.0850000000001116e-07
aF3.0860000000001117e-07
aF3.087000000000112e-07
aF3.088000000000112e-07
aF3.089000000000112e-07
aF3.090000000000112e-07
aF3.091000000000112e-07
aF3.092000000000112e-07
aF3.093000000000112e-07
aF3.0940000000001123e-07
aF3.0950000000001124e-07
aF3.0960000000001124e-07
aF3.0970000000001125e-07
aF3.0980000000001126e-07
aF3.0990000000001127e-07
aF3.1000000000001127e-07
aF3.101000000000113e-07
aF3.102000000000113e-07
aF3.103000000000113e-07
aF3.104000000000113e-07
aF3.105000000000113e-07
aF3.106000000000113e-07
aF3.107000000000113e-07
aF3.1080000000001133e-07
aF3.1090000000001134e-07
aF3.1100000000001135e-07
aF3.1110000000001136e-07
aF3.1120000000001136e-07
aF3.1130000000001137e-07
aF3.114000000000114e-07
aF3.115000000000114e-07
aF3.116000000000114e-07
aF3.117000000000114e-07
aF3.118000000000114e-07
aF3.119000000000114e-07
aF3.120000000000114e-07
aF3.1210000000001143e-07
aF3.1220000000001144e-07
aF3.1230000000001145e-07
aF3.1240000000001145e-07
aF3.1250000000001146e-07
aF3.1260000000001147e-07
aF3.127000000000115e-07
aF3.128000000000115e-07
aF3.129000000000115e-07
aF3.130000000000115e-07
aF3.131000000000115e-07
aF3.132000000000115e-07
aF3.133000000000115e-07
aF3.1340000000001153e-07
aF3.1350000000001154e-07
aF3.1360000000001154e-07
aF3.1370000000001155e-07
aF3.1380000000001156e-07
aF3.1390000000001157e-07
aF3.1400000000001157e-07
aF3.141000000000116e-07
aF3.142000000000116e-07
aF3.143000000000116e-07
aF3.144000000000116e-07
aF3.145000000000116e-07
aF3.146000000000116e-07
aF3.147000000000116e-07
aF3.1480000000001163e-07
aF3.1490000000001164e-07
aF3.1500000000001165e-07
aF3.1510000000001166e-07
aF3.1520000000001166e-07
aF3.1530000000001167e-07
aF3.154000000000117e-07
aF3.155000000000117e-07
aF3.156000000000117e-07
aF3.157000000000117e-07
aF3.158000000000117e-07
aF3.159000000000117e-07
aF3.160000000000117e-07
aF3.1610000000001173e-07
aF3.1620000000001174e-07
aF3.1630000000001175e-07
aF3.1640000000001175e-07
aF3.1650000000001176e-07
aF3.1660000000001177e-07
aF3.167000000000118e-07
aF3.168000000000118e-07
aF3.169000000000118e-07
aF3.170000000000118e-07
aF3.171000000000118e-07
aF3.172000000000118e-07
aF3.173000000000118e-07
aF3.1740000000001183e-07
aF3.1750000000001184e-07
aF3.1760000000001184e-07
aF3.1770000000001185e-07
aF3.1780000000001186e-07
aF3.1790000000001187e-07
aF3.180000000000119e-07
aF3.181000000000119e-07
aF3.182000000000119e-07
aF3.183000000000119e-07
aF3.184000000000119e-07
aF3.185000000000119e-07
aF3.186000000000119e-07
aF3.187000000000119e-07
aF3.1880000000001193e-07
aF3.1890000000001194e-07
aF3.1900000000001195e-07
aF3.1910000000001196e-07
aF3.1920000000001196e-07
aF3.1930000000001197e-07
aF3.19400000000012e-07
aF3.19500000000012e-07
aF3.19600000000012e-07
aF3.19700000000012e-07
aF3.19800000000012e-07
aF3.19900000000012e-07
aF3.20000000000012e-07
aF3.2010000000001203e-07
aF3.2020000000001204e-07
aF3.2030000000001205e-07
aF3.2040000000001205e-07
aF3.2050000000001206e-07
aF3.2060000000001207e-07
aF3.207000000000121e-07
aF3.208000000000121e-07
aF3.209000000000121e-07
aF3.210000000000121e-07
aF3.211000000000121e-07
aF3.212000000000121e-07
aF3.213000000000121e-07
aF3.2140000000001213e-07
aF3.2150000000001214e-07
aF3.2160000000001214e-07
aF3.2170000000001215e-07
aF3.2180000000001216e-07
aF3.2190000000001217e-07
aF3.220000000000122e-07
aF3.221000000000122e-07
aF3.222000000000122e-07
aF3.223000000000122e-07
aF3.224000000000122e-07
aF3.225000000000122e-07
aF3.226000000000122e-07
aF3.2270000000001223e-07
aF3.2280000000001223e-07
aF3.2290000000001224e-07
aF3.2300000000001225e-07
aF3.2310000000001226e-07
aF3.2320000000001226e-07
aF3.2330000000001227e-07
aF3.234000000000123e-07
aF3.235000000000123e-07
aF3.236000000000123e-07
aF3.237000000000123e-07
aF3.238000000000123e-07
aF3.239000000000123e-07
aF3.240000000000123e-07
aF3.2410000000001233e-07
aF3.2420000000001234e-07
aF3.2430000000001235e-07
aF3.2440000000001235e-07
aF3.2450000000001236e-07
aF3.2460000000001237e-07
aF3.247000000000124e-07
aF3.248000000000124e-07
aF3.249000000000124e-07
aF3.250000000000124e-07
aF3.251000000000124e-07
aF3.252000000000124e-07
aF3.253000000000124e-07
aF3.2540000000001243e-07
aF3.2550000000001244e-07
aF3.2560000000001244e-07
aF3.2570000000001245e-07
aF3.2580000000001246e-07
aF3.2590000000001247e-07
aF3.260000000000125e-07
aF3.261000000000125e-07
aF3.262000000000125e-07
aF3.263000000000125e-07
aF3.264000000000125e-07
aF3.265000000000125e-07
aF3.266000000000125e-07
aF3.2670000000001253e-07
aF3.2680000000001253e-07
aF3.2690000000001254e-07
aF3.2700000000001255e-07
aF3.2710000000001256e-07
aF3.2720000000001256e-07
aF3.2730000000001257e-07
aF3.274000000000126e-07
aF3.275000000000126e-07
aF3.276000000000126e-07
aF3.277000000000126e-07
aF3.278000000000126e-07
aF3.279000000000126e-07
aF3.280000000000126e-07
aF3.2810000000001263e-07
aF3.2820000000001264e-07
aF3.2830000000001265e-07
aF3.2840000000001266e-07
aF3.2850000000001266e-07
aF3.2860000000001267e-07
aF3.287000000000127e-07
aF3.288000000000127e-07
aF3.289000000000127e-07
aF3.290000000000127e-07
aF3.291000000000127e-07
aF3.292000000000127e-07
aF3.293000000000127e-07
aF3.2940000000001273e-07
aF3.2950000000001274e-07
aF3.2960000000001275e-07
aF3.2970000000001275e-07
aF3.2980000000001276e-07
aF3.2990000000001277e-07
aF3.300000000000128e-07
aF3.301000000000128e-07
aF3.302000000000128e-07
aF3.303000000000128e-07
aF3.304000000000128e-07
aF3.305000000000128e-07
aF3.306000000000128e-07
aF3.3070000000001283e-07
aF3.3080000000001284e-07
aF3.3090000000001284e-07
aF3.3100000000001285e-07
aF3.3110000000001286e-07
aF3.3120000000001287e-07
aF3.3130000000001287e-07
aF3.314000000000129e-07
aF3.315000000000129e-07
aF3.316000000000129e-07
aF3.317000000000129e-07
aF3.318000000000129e-07
aF3.319000000000129e-07
aF3.320000000000129e-07
aF3.3210000000001293e-07
aF3.3220000000001294e-07
aF3.3230000000001295e-07
aF3.3240000000001296e-07
aF3.3250000000001296e-07
aF3.3260000000001297e-07
aF3.32700000000013e-07
aF3.32800000000013e-07
aF3.32900000000013e-07
aF3.33000000000013e-07
aF3.33100000000013e-07
aF3.33200000000013e-07
aF3.33300000000013e-07
aF3.3340000000001303e-07
aF3.3350000000001304e-07
aF3.3360000000001305e-07
aF3.3370000000001305e-07
aF3.3380000000001306e-07
aF3.3390000000001307e-07
aF3.340000000000131e-07
aF3.341000000000131e-07
aF3.342000000000131e-07
aF3.343000000000131e-07
aF3.344000000000131e-07
aF3.345000000000131e-07
aF3.346000000000131e-07
aF3.3470000000001313e-07
aF3.3480000000001314e-07
aF3.3490000000001314e-07
aF3.3500000000001315e-07
aF3.3510000000001316e-07
aF3.3520000000001317e-07
aF3.3530000000001317e-07
aF3.354000000000132e-07
aF3.355000000000132e-07
aF3.356000000000132e-07
aF3.357000000000132e-07
aF3.358000000000132e-07
aF3.359000000000132e-07
aF3.360000000000132e-07
aF3.3610000000001323e-07
aF3.3620000000001324e-07
aF3.3630000000001325e-07
aF3.3640000000001326e-07
aF3.3650000000001326e-07
aF3.3660000000001327e-07
aF3.367000000000133e-07
aF3.368000000000133e-07
aF3.369000000000133e-07
aF3.370000000000133e-07
aF3.371000000000133e-07
aF3.372000000000133e-07
aF3.373000000000133e-07
aF3.3740000000001333e-07
aF3.3750000000001334e-07
aF3.3760000000001335e-07
aF3.3770000000001335e-07
aF3.3780000000001336e-07
aF3.3790000000001337e-07
aF3.380000000000134e-07
aF3.381000000000134e-07
aF3.382000000000134e-07
aF3.383000000000134e-07
aF3.384000000000134e-07
aF3.385000000000134e-07
aF3.386000000000134e-07
aF3.3870000000001343e-07
aF3.3880000000001344e-07
aF3.3890000000001344e-07
aF3.3900000000001345e-07
aF3.3910000000001346e-07
aF3.3920000000001347e-07
aF3.393000000000135e-07
aF3.394000000000135e-07
aF3.395000000000135e-07
aF3.396000000000135e-07
aF3.397000000000135e-07
aF3.398000000000135e-07
aF3.399000000000135e-07
aF3.4000000000001353e-07
aF3.4010000000001353e-07
aF3.4020000000001354e-07
aF3.4030000000001355e-07
aF3.4040000000001356e-07
aF3.4050000000001356e-07
aF3.4060000000001357e-07
aF3.407000000000136e-07
aF3.408000000000136e-07
aF3.409000000000136e-07
aF3.410000000000136e-07
aF3.411000000000136e-07
aF3.412000000000136e-07
aF3.413000000000136e-07
aF3.4140000000001363e-07
aF3.4150000000001364e-07
aF3.4160000000001365e-07
aF3.4170000000001365e-07
aF3.4180000000001366e-07
aF3.4190000000001367e-07
aF3.420000000000137e-07
aF3.421000000000137e-07
aF3.422000000000137e-07
aF3.423000000000137e-07
aF3.424000000000137e-07
aF3.425000000000137e-07
aF3.426000000000137e-07
aF3.4270000000001373e-07
aF3.4280000000001374e-07
aF3.4290000000001374e-07
aF3.4300000000001375e-07
aF3.4310000000001376e-07
aF3.4320000000001377e-07
aF3.433000000000138e-07
aF3.434000000000138e-07
aF3.435000000000138e-07
aF3.436000000000138e-07
aF3.437000000000138e-07
aF3.438000000000138e-07
aF3.439000000000138e-07
aF3.4400000000001383e-07
aF3.4410000000001383e-07
aF3.4420000000001384e-07
aF3.4430000000001385e-07
aF3.4440000000001386e-07
aF3.4450000000001386e-07
aF3.4460000000001387e-07
aF3.447000000000139e-07
aF3.448000000000139e-07
aF3.449000000000139e-07
aF3.450000000000139e-07
aF3.451000000000139e-07
aF3.452000000000139e-07
aF3.453000000000139e-07
aF3.4540000000001393e-07
aF3.4550000000001394e-07
aF3.4560000000001395e-07
aF3.4570000000001395e-07
aF3.4580000000001396e-07
aF3.4590000000001397e-07
aF3.46000000000014e-07
aF3.46100000000014e-07
aF3.46200000000014e-07
aF3.46300000000014e-07
aF3.46400000000014e-07
aF3.46500000000014e-07
aF3.46600000000014e-07
aF3.4670000000001403e-07
aF3.4680000000001404e-07
aF3.4690000000001404e-07
aF3.4700000000001405e-07
aF3.4710000000001406e-07
aF3.4720000000001407e-07
aF3.473000000000141e-07
aF3.474000000000141e-07
aF3.475000000000141e-07
aF3.476000000000141e-07
aF3.477000000000141e-07
aF3.478000000000141e-07
aF3.479000000000141e-07
aF3.4800000000001413e-07
aF3.4810000000001414e-07
aF3.4820000000001414e-07
aF3.4830000000001415e-07
aF3.4840000000001416e-07
aF3.4850000000001417e-07
aF3.4860000000001417e-07
aF3.487000000000142e-07
aF3.488000000000142e-07
aF3.489000000000142e-07
aF3.490000000000142e-07
aF3.491000000000142e-07
aF3.492000000000142e-07
aF3.493000000000142e-07
aF3.4940000000001423e-07
aF3.4950000000001424e-07
aF3.4960000000001425e-07
aF3.4970000000001426e-07
aF3.4980000000001426e-07
aF3.4990000000001427e-07
aF3.500000000000143e-07
aF3.501000000000143e-07
aF3.502000000000143e-07
aF3.503000000000143e-07
aF3.504000000000143e-07
aF3.505000000000143e-07
aF3.506000000000143e-07
aF3.5070000000001433e-07
aF3.5080000000001434e-07
aF3.5090000000001435e-07
aF3.5100000000001435e-07
aF3.5110000000001436e-07
aF3.5120000000001437e-07
aF3.513000000000144e-07
aF3.514000000000144e-07
aF3.515000000000144e-07
aF3.516000000000144e-07
aF3.517000000000144e-07
aF3.518000000000144e-07
aF3.519000000000144e-07
aF3.5200000000001443e-07
aF3.5210000000001444e-07
aF3.5220000000001444e-07
aF3.5230000000001445e-07
aF3.5240000000001446e-07
aF3.5250000000001447e-07
aF3.5260000000001447e-07
aF3.527000000000145e-07
aF3.528000000000145e-07
aF3.529000000000145e-07
aF3.530000000000145e-07
aF3.531000000000145e-07
aF3.532000000000145e-07
aF3.533000000000145e-07
aF3.5340000000001453e-07
aF3.5350000000001454e-07
aF3.5360000000001455e-07
aF3.5370000000001456e-07
aF3.5380000000001456e-07
aF3.5390000000001457e-07
aF3.540000000000146e-07
aF3.541000000000146e-07
aF3.542000000000146e-07
aF3.543000000000146e-07
aF3.544000000000146e-07
aF3.545000000000146e-07
aF3.546000000000146e-07
aF3.5470000000001463e-07
aF3.5480000000001464e-07
aF3.5490000000001465e-07
aF3.5500000000001465e-07
aF3.5510000000001466e-07
aF3.5520000000001467e-07
aF3.553000000000147e-07
aF3.554000000000147e-07
aF3.555000000000147e-07
aF3.556000000000147e-07
aF3.557000000000147e-07
aF3.558000000000147e-07
aF3.559000000000147e-07
aF3.5600000000001473e-07
aF3.5610000000001474e-07
aF3.5620000000001474e-07
aF3.5630000000001475e-07
aF3.5640000000001476e-07
aF3.5650000000001477e-07
aF3.566000000000148e-07
aF3.567000000000148e-07
aF3.568000000000148e-07
aF3.569000000000148e-07
aF3.570000000000148e-07
aF3.571000000000148e-07
aF3.572000000000148e-07
aF3.573000000000148e-07
aF3.5740000000001483e-07
aF3.5750000000001484e-07
aF3.5760000000001485e-07
aF3.5770000000001486e-07
aF3.5780000000001486e-07
aF3.5790000000001487e-07
aF3.580000000000149e-07
aF3.581000000000149e-07
aF3.582000000000149e-07
aF3.583000000000149e-07
aF3.584000000000149e-07
aF3.585000000000149e-07
aF3.586000000000149e-07
aF3.5870000000001493e-07
aF3.5880000000001494e-07
aF3.5890000000001495e-07
aF3.5900000000001495e-07
aF3.5910000000001496e-07
aF3.5920000000001497e-07
aF3.59300000000015e-07
aF3.59400000000015e-07
aF3.59500000000015e-07
aF3.59600000000015e-07
aF3.59700000000015e-07
aF3.59800000000015e-07
aF3.59900000000015e-07
aF3.6000000000001503e-07
aF3.6010000000001504e-07
aF3.6020000000001504e-07
aF3.6030000000001505e-07
aF3.6040000000001506e-07
aF3.6050000000001507e-07
aF3.606000000000151e-07
aF3.607000000000151e-07
aF3.608000000000151e-07
aF3.609000000000151e-07
aF3.610000000000151e-07
aF3.611000000000151e-07
aF3.612000000000151e-07
aF3.6130000000001513e-07
aF3.6140000000001513e-07
aF3.6150000000001514e-07
aF3.6160000000001515e-07
aF3.6170000000001516e-07
aF3.6180000000001516e-07
aF3.6190000000001517e-07
aF3.620000000000152e-07
aF3.621000000000152e-07
aF3.622000000000152e-07
aF3.623000000000152e-07
aF3.624000000000152e-07
aF3.625000000000152e-07
aF3.626000000000152e-07
aF3.6270000000001523e-07
aF3.6280000000001524e-07
aF3.6290000000001525e-07
aF3.6300000000001525e-07
aF3.6310000000001526e-07
aF3.6320000000001527e-07
aF3.633000000000153e-07
aF3.634000000000153e-07
aF3.635000000000153e-07
aF3.636000000000153e-07
aF3.637000000000153e-07
aF3.638000000000153e-07
aF3.639000000000153e-07
aF3.6400000000001533e-07
aF3.6410000000001534e-07
aF3.6420000000001534e-07
aF3.6430000000001535e-07
aF3.6440000000001536e-07
aF3.6450000000001537e-07
aF3.646000000000154e-07
aF3.647000000000154e-07
aF3.648000000000154e-07
aF3.649000000000154e-07
aF3.650000000000154e-07
aF3.651000000000154e-07
aF3.652000000000154e-07
aF3.6530000000001543e-07
aF3.6540000000001543e-07
aF3.6550000000001544e-07
aF3.6560000000001545e-07
aF3.6570000000001546e-07
aF3.6580000000001546e-07
aF3.6590000000001547e-07
aF3.660000000000155e-07
aF3.661000000000155e-07
aF3.662000000000155e-07
aF3.663000000000155e-07
aF3.664000000000155e-07
aF3.665000000000155e-07
aF3.666000000000155e-07
aF3.6670000000001553e-07
aF3.6680000000001554e-07
aF3.6690000000001555e-07
aF3.6700000000001556e-07
aF3.6710000000001556e-07
aF3.6720000000001557e-07
aF3.673000000000156e-07
aF3.674000000000156e-07
aF3.675000000000156e-07
aF3.676000000000156e-07
aF3.677000000000156e-07
aF3.678000000000156e-07
aF3.679000000000156e-07
aF3.6800000000001563e-07
aF3.6810000000001564e-07
aF3.6820000000001565e-07
aF3.6830000000001565e-07
aF3.6840000000001566e-07
aF3.6850000000001567e-07
aF3.686000000000157e-07
aF3.687000000000157e-07
aF3.688000000000157e-07
aF3.689000000000157e-07
aF3.690000000000157e-07
aF3.691000000000157e-07
aF3.692000000000157e-07
aF3.6930000000001573e-07
aF3.6940000000001574e-07
aF3.6950000000001574e-07
aF3.6960000000001575e-07
aF3.6970000000001576e-07
aF3.6980000000001577e-07
aF3.6990000000001577e-07
aF3.700000000000158e-07
aF3.701000000000158e-07
aF3.702000000000158e-07
aF3.703000000000158e-07
aF3.704000000000158e-07
aF3.705000000000158e-07
aF3.706000000000158e-07
aF3.7070000000001583e-07
aF3.7080000000001584e-07
aF3.7090000000001585e-07
aF3.7100000000001586e-07
aF3.7110000000001586e-07
aF3.7120000000001587e-07
aF3.713000000000159e-07
aF3.714000000000159e-07
aF3.715000000000159e-07
aF3.716000000000159e-07
aF3.717000000000159e-07
aF3.718000000000159e-07
aF3.719000000000159e-07
aF3.7200000000001593e-07
aF3.7210000000001594e-07
aF3.7220000000001595e-07
aF3.7230000000001595e-07
aF3.7240000000001596e-07
aF3.7250000000001597e-07
aF3.72600000000016e-07
aF3.72700000000016e-07
aF3.72800000000016e-07
aF3.72900000000016e-07
aF3.73000000000016e-07
aF3.73100000000016e-07
aF3.73200000000016e-07
aF3.7330000000001603e-07
aF3.7340000000001604e-07
aF3.7350000000001604e-07
aF3.7360000000001605e-07
aF3.7370000000001606e-07
aF3.7380000000001607e-07
aF3.7390000000001607e-07
aF3.740000000000161e-07
aF3.741000000000161e-07
aF3.742000000000161e-07
aF3.743000000000161e-07
aF3.744000000000161e-07
aF3.745000000000161e-07
aF3.746000000000161e-07
aF3.7470000000001613e-07
aF3.7480000000001614e-07
aF3.7490000000001615e-07
aF3.7500000000001616e-07
aF3.7510000000001616e-07
aF3.7520000000001617e-07
aF3.753000000000162e-07
aF3.754000000000162e-07
aF3.755000000000162e-07
aF3.756000000000162e-07
aF3.757000000000162e-07
aF3.758000000000162e-07
aF3.759000000000162e-07
aF3.7600000000001623e-07
aF3.7610000000001624e-07
aF3.7620000000001625e-07
aF3.7630000000001625e-07
aF3.7640000000001626e-07
aF3.7650000000001627e-07
aF3.766000000000163e-07
aF3.767000000000163e-07
aF3.768000000000163e-07
aF3.769000000000163e-07
aF3.770000000000163e-07
aF3.771000000000163e-07
aF3.772000000000163e-07
aF3.7730000000001633e-07
aF3.7740000000001634e-07
aF3.7750000000001634e-07
aF3.7760000000001635e-07
aF3.7770000000001636e-07
aF3.7780000000001637e-07
aF3.779000000000164e-07
aF3.780000000000164e-07
aF3.781000000000164e-07
aF3.782000000000164e-07
aF3.783000000000164e-07
aF3.784000000000164e-07
aF3.785000000000164e-07
aF3.7860000000001643e-07
aF3.7870000000001643e-07
aF3.7880000000001644e-07
aF3.7890000000001645e-07
aF3.7900000000001646e-07
aF3.7910000000001646e-07
aF3.7920000000001647e-07
aF3.793000000000165e-07
aF3.794000000000165e-07
aF3.795000000000165e-07
aF3.796000000000165e-07
aF3.797000000000165e-07
aF3.798000000000165e-07
aF3.799000000000165e-07
aF3.8000000000001653e-07
aF3.8010000000001654e-07
aF3.8020000000001655e-07
aF3.8030000000001655e-07
aF3.8040000000001656e-07
aF3.8050000000001657e-07
aF3.806000000000166e-07
aF3.807000000000166e-07
aF3.808000000000166e-07
aF3.809000000000166e-07
aF3.810000000000166e-07
aF3.811000000000166e-07
aF3.812000000000166e-07
aF3.8130000000001663e-07
aF3.8140000000001664e-07
aF3.8150000000001664e-07
aF3.8160000000001665e-07
aF3.8170000000001666e-07
aF3.8180000000001667e-07
aF3.819000000000167e-07
aF3.820000000000167e-07
aF3.821000000000167e-07
aF3.822000000000167e-07
aF3.823000000000167e-07
aF3.824000000000167e-07
aF3.825000000000167e-07
aF3.8260000000001673e-07
aF3.8270000000001673e-07
aF3.8280000000001674e-07
aF3.8290000000001675e-07
aF3.8300000000001676e-07
aF3.8310000000001676e-07
aF3.8320000000001677e-07
aF3.833000000000168e-07
aF3.834000000000168e-07
aF3.835000000000168e-07
aF3.836000000000168e-07
aF3.837000000000168e-07
aF3.838000000000168e-07
aF3.839000000000168e-07
aF3.8400000000001683e-07
aF3.8410000000001684e-07
aF3.8420000000001685e-07
aF3.8430000000001685e-07
aF3.8440000000001686e-07
aF3.8450000000001687e-07
aF3.846000000000169e-07
aF3.847000000000169e-07
aF3.848000000000169e-07
aF3.849000000000169e-07
aF3.850000000000169e-07
aF3.851000000000169e-07
aF3.852000000000169e-07
aF3.8530000000001693e-07
aF3.8540000000001694e-07
aF3.8550000000001694e-07
aF3.8560000000001695e-07
aF3.8570000000001696e-07
aF3.8580000000001697e-07
aF3.85900000000017e-07
aF3.86000000000017e-07
aF3.86100000000017e-07
aF3.86200000000017e-07
aF3.86300000000017e-07
aF3.86400000000017e-07
aF3.86500000000017e-07
aF3.8660000000001703e-07
aF3.8670000000001704e-07
aF3.8680000000001704e-07
aF3.8690000000001705e-07
aF3.8700000000001706e-07
aF3.8710000000001707e-07
aF3.8720000000001707e-07
aF3.873000000000171e-07
aF3.874000000000171e-07
aF3.875000000000171e-07
aF3.876000000000171e-07
aF3.877000000000171e-07
aF3.878000000000171e-07
aF3.879000000000171e-07
aF3.8800000000001713e-07
aF3.8810000000001714e-07
aF3.8820000000001715e-07
aF3.8830000000001716e-07
aF3.8840000000001716e-07
aF3.8850000000001717e-07
aF3.886000000000172e-07
aF3.887000000000172e-07
aF3.888000000000172e-07
aF3.889000000000172e-07
aF3.890000000000172e-07
aF3.891000000000172e-07
aF3.892000000000172e-07
aF3.8930000000001723e-07
aF3.8940000000001724e-07
aF3.8950000000001725e-07
aF3.8960000000001725e-07
aF3.8970000000001726e-07
aF3.8980000000001727e-07
aF3.899000000000173e-07
aF3.900000000000173e-07
aF3.901000000000173e-07
aF3.902000000000173e-07
aF3.903000000000173e-07
aF3.904000000000173e-07
aF3.905000000000173e-07
aF3.9060000000001733e-07
aF3.9070000000001734e-07
aF3.9080000000001734e-07
aF3.9090000000001735e-07
aF3.9100000000001736e-07
aF3.9110000000001737e-07
aF3.9120000000001737e-07
aF3.913000000000174e-07
aF3.914000000000174e-07
aF3.915000000000174e-07
aF3.916000000000174e-07
aF3.917000000000174e-07
aF3.918000000000174e-07
aF3.919000000000174e-07
aF3.9200000000001743e-07
aF3.9210000000001744e-07
aF3.9220000000001745e-07
aF3.9230000000001746e-07
aF3.9240000000001746e-07
aF3.9250000000001747e-07
aF3.926000000000175e-07
aF3.927000000000175e-07
aF3.928000000000175e-07
aF3.929000000000175e-07
aF3.930000000000175e-07
aF3.931000000000175e-07
aF3.932000000000175e-07
aF3.9330000000001753e-07
aF3.9340000000001754e-07
aF3.9350000000001755e-07
aF3.9360000000001755e-07
aF3.9370000000001756e-07
aF3.9380000000001757e-07
aF3.939000000000176e-07
aF3.940000000000176e-07
aF3.941000000000176e-07
aF3.942000000000176e-07
aF3.943000000000176e-07
aF3.944000000000176e-07
aF3.945000000000176e-07
aF3.9460000000001763e-07
aF3.9470000000001764e-07
aF3.9480000000001764e-07
aF3.9490000000001765e-07
aF3.9500000000001766e-07
aF3.9510000000001767e-07
aF3.952000000000177e-07
aF3.953000000000177e-07
aF3.954000000000177e-07
aF3.955000000000177e-07
aF3.956000000000177e-07
aF3.957000000000177e-07
aF3.958000000000177e-07
aF3.959000000000177e-07
aF3.9600000000001773e-07
aF3.9610000000001774e-07
aF3.9620000000001775e-07
aF3.9630000000001776e-07
aF3.9640000000001776e-07
aF3.9650000000001777e-07
aF3.966000000000178e-07
aF3.967000000000178e-07
aF3.968000000000178e-07
aF3.969000000000178e-07
aF3.970000000000178e-07
aF3.971000000000178e-07
aF3.972000000000178e-07
aF3.9730000000001783e-07
aF3.9740000000001784e-07
aF3.9750000000001785e-07
aF3.9760000000001785e-07
aF3.9770000000001786e-07
aF3.9780000000001787e-07
aF3.979000000000179e-07
aF3.980000000000179e-07
aF3.981000000000179e-07
aF3.982000000000179e-07
aF3.983000000000179e-07
aF3.984000000000179e-07
aF3.985000000000179e-07
aF3.9860000000001793e-07
aF3.9870000000001794e-07
aF3.9880000000001794e-07
aF3.9890000000001795e-07
aF3.9900000000001796e-07
aF3.9910000000001797e-07
aF3.99200000000018e-07
aF3.99300000000018e-07
aF3.99400000000018e-07
aF3.99500000000018e-07
aF3.99600000000018e-07
aF3.99700000000018e-07
aF3.99800000000018e-07
aF3.9990000000001803e-07
aF4.0000000000001803e-07
aF4.0010000000001804e-07
aF4.0020000000001805e-07
aF4.0030000000001806e-07
aF4.0040000000001806e-07
aF4.0050000000001807e-07
aF4.006000000000181e-07
aF4.007000000000181e-07
aF4.008000000000181e-07
aF4.009000000000181e-07
aF4.010000000000181e-07
aF4.011000000000181e-07
aF4.012000000000181e-07
aF4.0130000000001813e-07
aF4.0140000000001814e-07
aF4.0150000000001815e-07
aF4.0160000000001815e-07
aF4.0170000000001816e-07
aF4.0180000000001817e-07
aF4.019000000000182e-07
aF4.020000000000182e-07
aF4.021000000000182e-07
aF4.022000000000182e-07
aF4.023000000000182e-07
aF4.024000000000182e-07
aF4.025000000000182e-07
aF4.0260000000001823e-07
aF4.0270000000001824e-07
aF4.0280000000001824e-07
aF4.0290000000001825e-07
aF4.0300000000001826e-07
aF4.0310000000001827e-07
aF4.032000000000183e-07
aF4.033000000000183e-07
aF4.034000000000183e-07
aF4.035000000000183e-07
aF4.036000000000183e-07
aF4.037000000000183e-07
aF4.038000000000183e-07
aF4.0390000000001833e-07
aF4.0400000000001833e-07
aF4.0410000000001834e-07
aF4.0420000000001835e-07
aF4.0430000000001836e-07
aF4.0440000000001836e-07
aF4.0450000000001837e-07
aF4.046000000000184e-07
aF4.047000000000184e-07
aF4.048000000000184e-07
aF4.049000000000184e-07
aF4.050000000000184e-07
aF4.051000000000184e-07
aF4.052000000000184e-07
aF4.0530000000001843e-07
aF4.0540000000001844e-07
aF4.0550000000001845e-07
aF4.0560000000001846e-07
aF4.0570000000001846e-07
aF4.0580000000001847e-07
aF4.059000000000185e-07
aF4.060000000000185e-07
aF4.061000000000185e-07
aF4.062000000000185e-07
aF4.063000000000185e-07
aF4.064000000000185e-07
aF4.065000000000185e-07
aF4.0660000000001853e-07
aF4.0670000000001854e-07
aF4.0680000000001855e-07
aF4.0690000000001855e-07
aF4.0700000000001856e-07
aF4.0710000000001857e-07
aF4.072000000000186e-07
aF4.073000000000186e-07
aF4.074000000000186e-07
aF4.075000000000186e-07
aF4.076000000000186e-07
aF4.077000000000186e-07
aF4.078000000000186e-07
a.