(lp0
I0
aF1.0000000000000002e-10
aF2.0000000000000003e-10
aF3.0000000000000005e-10
aF4.0000000000000007e-10
aF5.000000000000001e-10
aF6.000000000000002e-10
aF7.000000000000003e-10
aF8.000000000000003e-10
aF9.000000000000004e-10
aF1.0000000000000005e-09
aF1.1000000000000005e-09
aF1.2000000000000006e-09
aF1.3000000000000007e-09
aF1.4000000000000007e-09
aF1.5000000000000008e-09
aF1.6000000000000009e-09
aF1.700000000000001e-09
a.