(lp0
I0
aF1e-08
aF2e-08
aF3.0000000000000004e-08
aF4e-08
aF5e-08
aF6e-08
aF6.999999999999999e-08
aF7.999999999999999e-08
aF8.999999999999999e-08
aF9.999999999999998e-08
aF1.0999999999999998e-07
aF1.2e-07
aF1.3e-07
aF1.4e-07
aF1.5000000000000002e-07
aF1.6000000000000003e-07
aF1.7000000000000004e-07
aF1.8000000000000005e-07
aF1.9000000000000006e-07
aF2.0000000000000007e-07
aF2.1000000000000008e-07
aF2.200000000000001e-07
aF2.300000000000001e-07
aF2.400000000000001e-07
aF2.500000000000001e-07
aF2.600000000000001e-07
aF2.700000000000001e-07
aF2.800000000000001e-07
aF2.9000000000000014e-07
aF3.0000000000000015e-07
aF3.1000000000000016e-07
aF3.2000000000000017e-07
aF3.300000000000002e-07
aF3.400000000000002e-07
aF3.500000000000002e-07
aF3.600000000000002e-07
aF3.700000000000002e-07
aF3.800000000000002e-07
aF3.9000000000000024e-07
aF4.0000000000000025e-07
aF4.1000000000000026e-07
aF4.2000000000000027e-07
aF4.300000000000003e-07
aF4.400000000000003e-07
aF4.500000000000003e-07
aF4.600000000000003e-07
aF4.700000000000003e-07
aF4.800000000000003e-07
aF4.900000000000003e-07
aF5.000000000000003e-07
aF5.100000000000003e-07
aF5.200000000000003e-07
aF5.300000000000003e-07
aF5.400000000000003e-07
aF5.500000000000003e-07
aF5.600000000000004e-07
aF5.700000000000004e-07
aF5.800000000000004e-07
aF5.900000000000004e-07
aF6.000000000000004e-07
aF6.100000000000004e-07
aF6.200000000000004e-07
aF6.300000000000004e-07
aF6.400000000000004e-07
aF6.500000000000004e-07
aF6.600000000000005e-07
aF6.700000000000005e-07
aF6.800000000000005e-07
aF6.900000000000005e-07
aF7.000000000000005e-07
aF7.100000000000005e-07
aF7.200000000000005e-07
aF7.300000000000005e-07
aF7.400000000000005e-07
aF7.500000000000005e-07
aF7.600000000000006e-07
aF7.700000000000006e-07
aF7.800000000000006e-07
aF7.900000000000006e-07
aF8.000000000000006e-07
aF8.100000000000006e-07
aF8.200000000000006e-07
aF8.300000000000006e-07
aF8.400000000000006e-07
aF8.500000000000006e-07
aF8.600000000000007e-07
aF8.700000000000007e-07
aF8.800000000000007e-07
aF8.900000000000007e-07
aF9.000000000000007e-07
aF9.100000000000007e-07
aF9.200000000000007e-07
aF9.300000000000007e-07
aF9.400000000000007e-07
aF9.500000000000008e-07
aF9.600000000000008e-07
aF9.700000000000007e-07
aF9.800000000000006e-07
aF9.900000000000005e-07
aF1.0000000000000004e-06
aF1.0100000000000003e-06
aF1.0200000000000002e-06
aF1.03e-06
aF1.04e-06
aF1.05e-06
aF1.0599999999999998e-06
aF1.0699999999999997e-06
aF1.0799999999999996e-06
aF1.0899999999999995e-06
aF1.0999999999999994e-06
aF1.1099999999999993e-06
aF1.1199999999999992e-06
aF1.1299999999999991e-06
aF1.139999999999999e-06
aF1.149999999999999e-06
aF1.1599999999999988e-06
aF1.1699999999999988e-06
aF1.1799999999999987e-06
aF1.1899999999999986e-06
aF1.1999999999999985e-06
aF1.2099999999999984e-06
aF1.2199999999999983e-06
aF1.2299999999999982e-06
aF1.239999999999998e-06
aF1.249999999999998e-06
aF1.2599999999999979e-06
aF1.2699999999999978e-06
aF1.2799999999999977e-06
aF1.2899999999999976e-06
aF1.2999999999999975e-06
aF1.3099999999999974e-06
aF1.3199999999999973e-06
aF1.3299999999999972e-06
aF1.3399999999999971e-06
aF1.349999999999997e-06
aF1.359999999999997e-06
aF1.3699999999999968e-06
aF1.3799999999999967e-06
aF1.3899999999999966e-06
aF1.3999999999999965e-06
aF1.4099999999999965e-06
aF1.4199999999999964e-06
aF1.4299999999999963e-06
aF1.4399999999999962e-06
aF1.449999999999996e-06
aF1.459999999999996e-06
aF1.4699999999999959e-06
aF1.4799999999999958e-06
aF1.4899999999999957e-06
aF1.4999999999999956e-06
aF1.5099999999999955e-06
aF1.5199999999999954e-06
aF1.5299999999999953e-06
aF1.5399999999999952e-06
aF1.5499999999999951e-06
aF1.559999999999995e-06
aF1.569999999999995e-06
aF1.5799999999999948e-06
aF1.5899999999999947e-06
aF1.5999999999999946e-06
aF1.6099999999999945e-06
aF1.6199999999999944e-06
aF1.6299999999999943e-06
aF1.6399999999999943e-06
aF1.6499999999999942e-06
aF1.659999999999994e-06
aF1.669999999999994e-06
aF1.6799999999999939e-06
aF1.6899999999999938e-06
aF1.6999999999999937e-06
aF1.7099999999999936e-06
aF1.7199999999999935e-06
aF1.7299999999999934e-06
aF1.7399999999999933e-06
aF1.7499999999999932e-06
aF1.759999999999993e-06
aF1.769999999999993e-06
aF1.779999999999993e-06
aF1.7899999999999928e-06
aF1.7999999999999927e-06
aF1.8099999999999926e-06
aF1.8199999999999925e-06
aF1.8299999999999924e-06
aF1.8399999999999923e-06
aF1.8499999999999922e-06
aF1.8599999999999921e-06
aF1.869999999999992e-06
aF1.879999999999992e-06
aF1.8899999999999919e-06
aF1.8999999999999918e-06
aF1.909999999999992e-06
aF1.9199999999999918e-06
aF1.9299999999999917e-06
aF1.9399999999999916e-06
aF1.9499999999999915e-06
aF1.9599999999999914e-06
aF1.9699999999999913e-06
aF1.979999999999991e-06
aF1.989999999999991e-06
aF1.999999999999991e-06
aF2.009999999999991e-06
aF2.019999999999991e-06
aF2.0299999999999907e-06
aF2.0399999999999906e-06
aF2.0499999999999905e-06
aF2.0599999999999904e-06
aF2.0699999999999903e-06
aF2.0799999999999902e-06
aF2.08999999999999e-06
aF2.09999999999999e-06
aF2.10999999999999e-06
aF2.11999999999999e-06
aF2.1299999999999898e-06
aF2.1399999999999897e-06
aF2.1499999999999896e-06
aF2.1599999999999895e-06
aF2.1699999999999894e-06
aF2.1799999999999893e-06
aF2.189999999999989e-06
aF2.199999999999989e-06
aF2.209999999999989e-06
aF2.219999999999989e-06
aF2.229999999999989e-06
aF2.2399999999999887e-06
aF2.2499999999999886e-06
aF2.2599999999999885e-06
aF2.2699999999999884e-06
aF2.2799999999999883e-06
aF2.2899999999999882e-06
aF2.299999999999988e-06
aF2.309999999999988e-06
aF2.319999999999988e-06
aF2.329999999999988e-06
aF2.3399999999999878e-06
aF2.3499999999999877e-06
aF2.3599999999999876e-06
aF2.3699999999999875e-06
aF2.3799999999999874e-06
aF2.3899999999999873e-06
aF2.399999999999987e-06
aF2.409999999999987e-06
aF2.419999999999987e-06
aF2.429999999999987e-06
aF2.439999999999987e-06
aF2.4499999999999867e-06
aF2.4599999999999866e-06
aF2.4699999999999865e-06
aF2.4799999999999864e-06
aF2.4899999999999863e-06
aF2.4999999999999862e-06
aF2.509999999999986e-06
aF2.519999999999986e-06
aF2.529999999999986e-06
aF2.539999999999986e-06
aF2.5499999999999857e-06
aF2.5599999999999857e-06
aF2.5699999999999856e-06
aF2.5799999999999855e-06
aF2.5899999999999854e-06
aF2.5999999999999853e-06
aF2.609999999999985e-06
aF2.619999999999985e-06
aF2.629999999999985e-06
aF2.639999999999985e-06
aF2.649999999999985e-06
aF2.6599999999999847e-06
aF2.6699999999999846e-06
aF2.6799999999999845e-06
aF2.6899999999999844e-06
aF2.6999999999999843e-06
aF2.7099999999999842e-06
aF2.719999999999984e-06
aF2.729999999999984e-06
aF2.739999999999984e-06
aF2.749999999999984e-06
aF2.7599999999999837e-06
aF2.7699999999999836e-06
aF2.7799999999999835e-06
aF2.7899999999999835e-06
aF2.7999999999999834e-06
aF2.8099999999999833e-06
aF2.819999999999983e-06
aF2.829999999999983e-06
aF2.839999999999983e-06
aF2.849999999999983e-06
aF2.8599999999999828e-06
aF2.8699999999999827e-06
aF2.8799999999999826e-06
aF2.8899999999999825e-06
aF2.8999999999999824e-06
aF2.9099999999999823e-06
aF2.919999999999982e-06
aF2.929999999999982e-06
aF2.939999999999982e-06
aF2.949999999999982e-06
aF2.959999999999982e-06
aF2.9699999999999817e-06
aF2.9799999999999816e-06
aF2.9899999999999815e-06
aF2.9999999999999814e-06
aF3.0099999999999813e-06
aF3.0199999999999812e-06
aF3.029999999999981e-06
aF3.039999999999981e-06
aF3.049999999999981e-06
aF3.059999999999981e-06
aF3.0699999999999808e-06
aF3.0799999999999807e-06
aF3.0899999999999806e-06
aF3.0999999999999805e-06
aF3.1099999999999804e-06
aF3.1199999999999803e-06
aF3.12999999999998e-06
aF3.13999999999998e-06
aF3.14999999999998e-06
aF3.15999999999998e-06
aF3.16999999999998e-06
aF3.1799999999999797e-06
aF3.1899999999999796e-06
aF3.1999999999999795e-06
aF3.2099999999999794e-06
aF3.2199999999999793e-06
aF3.2299999999999792e-06
aF3.239999999999979e-06
aF3.249999999999979e-06
aF3.259999999999979e-06
aF3.269999999999979e-06
aF3.2799999999999788e-06
aF3.2899999999999787e-06
aF3.2999999999999786e-06
aF3.3099999999999785e-06
aF3.3199999999999784e-06
aF3.3299999999999783e-06
aF3.339999999999978e-06
aF3.349999999999978e-06
aF3.359999999999978e-06
aF3.369999999999978e-06
aF3.379999999999978e-06
aF3.3899999999999777e-06
aF3.3999999999999776e-06
aF3.4099999999999775e-06
aF3.4199999999999774e-06
aF3.4299999999999773e-06
aF3.4399999999999772e-06
aF3.449999999999977e-06
aF3.459999999999977e-06
aF3.469999999999977e-06
aF3.479999999999977e-06
aF3.4899999999999767e-06
aF3.4999999999999767e-06
aF3.5099999999999766e-06
aF3.5199999999999765e-06
aF3.5299999999999764e-06
aF3.5399999999999763e-06
aF3.549999999999976e-06
aF3.559999999999976e-06
aF3.569999999999976e-06
aF3.579999999999976e-06
aF3.589999999999976e-06
aF3.5999999999999757e-06
aF3.6099999999999756e-06
aF3.6199999999999755e-06
aF3.6299999999999754e-06
aF3.6399999999999753e-06
aF3.6499999999999752e-06
aF3.659999999999975e-06
aF3.669999999999975e-06
aF3.679999999999975e-06
aF3.689999999999975e-06
aF3.6999999999999747e-06
aF3.7099999999999746e-06
aF3.7199999999999745e-06
aF3.7299999999999745e-06
aF3.7399999999999744e-06
aF3.7499999999999743e-06
aF3.759999999999974e-06
aF3.769999999999974e-06
aF3.779999999999974e-06
aF3.789999999999974e-06
aF3.7999999999999738e-06
aF3.8099999999999737e-06
aF3.819999999999974e-06
aF3.8299999999999735e-06
aF3.839999999999973e-06
aF3.849999999999973e-06
aF3.859999999999973e-06
aF3.869999999999973e-06
aF3.879999999999973e-06
aF3.889999999999973e-06
aF3.899999999999973e-06
aF3.909999999999973e-06
aF3.919999999999973e-06
aF3.9299999999999725e-06
aF3.9399999999999724e-06
aF3.949999999999972e-06
aF3.959999999999972e-06
aF3.969999999999972e-06
aF3.979999999999972e-06
aF3.989999999999972e-06
aF3.999999999999972e-06
aF4.009999999999972e-06
aF4.019999999999972e-06
aF4.029999999999972e-06
aF4.0399999999999715e-06
aF4.049999999999971e-06
aF4.059999999999971e-06
aF4.069999999999971e-06
aF4.079999999999971e-06
aF4.089999999999971e-06
aF4.099999999999971e-06
aF4.109999999999971e-06
aF4.119999999999971e-06
aF4.129999999999971e-06
aF4.1399999999999705e-06
aF4.1499999999999704e-06
aF4.15999999999997e-06
aF4.16999999999997e-06
aF4.17999999999997e-06
aF4.18999999999997e-06
aF4.19999999999997e-06
aF4.20999999999997e-06
aF4.21999999999997e-06
aF4.22999999999997e-06
aF4.2399999999999696e-06
aF4.2499999999999695e-06
aF4.259999999999969e-06
aF4.269999999999969e-06
aF4.279999999999969e-06
aF4.289999999999969e-06
aF4.299999999999969e-06
aF4.309999999999969e-06
aF4.319999999999969e-06
aF4.329999999999969e-06
aF4.339999999999969e-06
aF4.3499999999999685e-06
aF4.359999999999968e-06
aF4.369999999999968e-06
aF4.379999999999968e-06
aF4.389999999999968e-06
aF4.399999999999968e-06
aF4.409999999999968e-06
aF4.419999999999968e-06
aF4.429999999999968e-06
aF4.439999999999968e-06
aF4.4499999999999676e-06
aF4.4599999999999675e-06
aF4.469999999999967e-06
aF4.479999999999967e-06
aF4.489999999999967e-06
aF4.499999999999967e-06
aF4.509999999999967e-06
aF4.519999999999967e-06
aF4.529999999999967e-06
aF4.539999999999967e-06
aF4.549999999999967e-06
aF4.5599999999999665e-06
aF4.569999999999966e-06
aF4.579999999999966e-06
aF4.589999999999966e-06
aF4.599999999999966e-06
aF4.609999999999966e-06
aF4.619999999999966e-06
aF4.629999999999966e-06
aF4.639999999999966e-06
aF4.649999999999966e-06
aF4.6599999999999655e-06
aF4.6699999999999655e-06
aF4.679999999999965e-06
aF4.689999999999965e-06
aF4.699999999999965e-06
aF4.709999999999965e-06
aF4.719999999999965e-06
aF4.729999999999965e-06
aF4.739999999999965e-06
aF4.749999999999965e-06
aF4.759999999999965e-06
aF4.7699999999999645e-06
aF4.779999999999964e-06
aF4.789999999999964e-06
aF4.799999999999964e-06
aF4.809999999999964e-06
aF4.819999999999964e-06
aF4.829999999999964e-06
aF4.839999999999964e-06
aF4.849999999999964e-06
aF4.859999999999964e-06
aF4.8699999999999635e-06
aF4.8799999999999634e-06
aF4.889999999999963e-06
aF4.899999999999963e-06
aF4.909999999999963e-06
aF4.919999999999963e-06
aF4.929999999999963e-06
aF4.939999999999963e-06
aF4.949999999999963e-06
aF4.959999999999963e-06
aF4.969999999999963e-06
aF4.9799999999999625e-06
aF4.989999999999962e-06
aF4.999999999999962e-06
aF5.009999999999962e-06
aF5.019999999999962e-06
aF5.029999999999962e-06
aF5.039999999999962e-06
aF5.049999999999962e-06
aF5.059999999999962e-06
aF5.069999999999962e-06
aF5.0799999999999615e-06
aF5.0899999999999614e-06
aF5.099999999999961e-06
aF5.109999999999961e-06
aF5.119999999999961e-06
aF5.129999999999961e-06
aF5.139999999999961e-06
aF5.149999999999961e-06
aF5.159999999999961e-06
aF5.169999999999961e-06
aF5.1799999999999606e-06
aF5.1899999999999605e-06
aF5.19999999999996e-06
aF5.20999999999996e-06
aF5.21999999999996e-06
aF5.22999999999996e-06
aF5.23999999999996e-06
aF5.24999999999996e-06
aF5.25999999999996e-06
aF5.26999999999996e-06
aF5.27999999999996e-06
aF5.2899999999999595e-06
aF5.299999999999959e-06
aF5.309999999999959e-06
aF5.319999999999959e-06
aF5.329999999999959e-06
aF5.339999999999959e-06
aF5.349999999999959e-06
aF5.359999999999959e-06
aF5.369999999999959e-06
aF5.379999999999959e-06
aF5.3899999999999586e-06
aF5.3999999999999585e-06
aF5.409999999999958e-06
aF5.419999999999958e-06
aF5.429999999999958e-06
aF5.439999999999958e-06
aF5.449999999999958e-06
aF5.459999999999958e-06
aF5.469999999999958e-06
aF5.479999999999958e-06
aF5.489999999999958e-06
aF5.4999999999999575e-06
aF5.509999999999957e-06
aF5.519999999999957e-06
aF5.529999999999957e-06
aF5.539999999999957e-06
aF5.549999999999957e-06
aF5.559999999999957e-06
aF5.569999999999957e-06
aF5.579999999999957e-06
aF5.589999999999957e-06
aF5.5999999999999565e-06
aF5.6099999999999565e-06
aF5.619999999999956e-06
aF5.629999999999956e-06
aF5.639999999999956e-06
aF5.649999999999956e-06
aF5.659999999999956e-06
aF5.669999999999956e-06
aF5.679999999999956e-06
aF5.689999999999956e-06
aF5.699999999999956e-06
aF5.7099999999999555e-06
aF5.719999999999955e-06
aF5.729999999999955e-06
aF5.739999999999955e-06
aF5.749999999999955e-06
aF5.759999999999955e-06
aF5.769999999999955e-06
aF5.779999999999955e-06
aF5.789999999999955e-06
aF5.799999999999955e-06
aF5.8099999999999545e-06
aF5.8199999999999544e-06
aF5.829999999999954e-06
aF5.839999999999954e-06
aF5.849999999999954e-06
aF5.859999999999954e-06
aF5.869999999999954e-06
aF5.879999999999954e-06
aF5.889999999999954e-06
aF5.899999999999954e-06
aF5.909999999999954e-06
aF5.9199999999999535e-06
aF5.929999999999953e-06
aF5.939999999999953e-06
aF5.949999999999953e-06
aF5.959999999999953e-06
aF5.969999999999953e-06
aF5.979999999999953e-06
aF5.989999999999953e-06
aF5.999999999999953e-06
aF6.009999999999953e-06
aF6.0199999999999525e-06
aF6.0299999999999524e-06
aF6.039999999999952e-06
aF6.049999999999952e-06
aF6.059999999999952e-06
aF6.069999999999952e-06
aF6.079999999999952e-06
aF6.089999999999952e-06
aF6.099999999999952e-06
aF6.109999999999952e-06
aF6.1199999999999516e-06
aF6.1299999999999515e-06
aF6.139999999999951e-06
aF6.149999999999951e-06
aF6.159999999999951e-06
aF6.169999999999951e-06
aF6.179999999999951e-06
aF6.189999999999951e-06
aF6.199999999999951e-06
aF6.209999999999951e-06
aF6.219999999999951e-06
aF6.2299999999999505e-06
aF6.23999999999995e-06
aF6.24999999999995e-06
aF6.25999999999995e-06
aF6.26999999999995e-06
aF6.27999999999995e-06
aF6.28999999999995e-06
aF6.29999999999995e-06
aF6.30999999999995e-06
aF6.31999999999995e-06
aF6.3299999999999496e-06
aF6.3399999999999495e-06
aF6.349999999999949e-06
aF6.359999999999949e-06
aF6.369999999999949e-06
aF6.379999999999949e-06
aF6.389999999999949e-06
aF6.399999999999949e-06
aF6.409999999999949e-06
aF6.419999999999949e-06
aF6.429999999999949e-06
aF6.4399999999999485e-06
aF6.449999999999948e-06
aF6.459999999999948e-06
aF6.469999999999948e-06
aF6.479999999999948e-06
aF6.489999999999948e-06
aF6.499999999999948e-06
aF6.509999999999948e-06
aF6.519999999999948e-06
aF6.529999999999948e-06
aF6.5399999999999475e-06
aF6.5499999999999475e-06
aF6.559999999999947e-06
aF6.569999999999947e-06
aF6.579999999999947e-06
aF6.589999999999947e-06
aF6.599999999999947e-06
aF6.609999999999947e-06
aF6.619999999999947e-06
aF6.629999999999947e-06
aF6.639999999999947e-06
aF6.6499999999999465e-06
aF6.659999999999946e-06
aF6.669999999999946e-06
aF6.679999999999946e-06
aF6.689999999999946e-06
aF6.699999999999946e-06
aF6.709999999999946e-06
aF6.719999999999946e-06
aF6.729999999999946e-06
aF6.739999999999946e-06
aF6.7499999999999455e-06
aF6.7599999999999454e-06
aF6.769999999999945e-06
aF6.779999999999945e-06
aF6.789999999999945e-06
aF6.799999999999945e-06
aF6.809999999999945e-06
aF6.819999999999945e-06
aF6.829999999999945e-06
aF6.839999999999945e-06
aF6.849999999999945e-06
aF6.8599999999999445e-06
aF6.869999999999944e-06
aF6.879999999999944e-06
aF6.889999999999944e-06
aF6.899999999999944e-06
aF6.909999999999944e-06
aF6.919999999999944e-06
aF6.929999999999944e-06
aF6.939999999999944e-06
aF6.949999999999944e-06
aF6.9599999999999435e-06
aF6.9699999999999434e-06
aF6.979999999999943e-06
aF6.989999999999943e-06
aF6.999999999999943e-06
aF7.009999999999943e-06
aF7.019999999999943e-06
aF7.029999999999943e-06
aF7.039999999999943e-06
aF7.049999999999943e-06
aF7.0599999999999426e-06
aF7.0699999999999425e-06
aF7.079999999999942e-06
aF7.089999999999942e-06
aF7.099999999999942e-06
aF7.109999999999942e-06
aF7.119999999999942e-06
aF7.129999999999942e-06
aF7.139999999999942e-06
aF7.149999999999942e-06
aF7.159999999999942e-06
aF7.1699999999999415e-06
aF7.179999999999941e-06
aF7.189999999999941e-06
aF7.199999999999941e-06
aF7.209999999999941e-06
aF7.219999999999941e-06
aF7.229999999999941e-06
aF7.239999999999941e-06
aF7.249999999999941e-06
aF7.259999999999941e-06
aF7.2699999999999406e-06
aF7.2799999999999405e-06
aF7.28999999999994e-06
aF7.29999999999994e-06
aF7.30999999999994e-06
aF7.31999999999994e-06
aF7.32999999999994e-06
aF7.33999999999994e-06
aF7.34999999999994e-06
aF7.35999999999994e-06
aF7.36999999999994e-06
aF7.3799999999999395e-06
aF7.389999999999939e-06
aF7.399999999999939e-06
aF7.409999999999939e-06
aF7.419999999999939e-06
aF7.429999999999939e-06
aF7.439999999999939e-06
aF7.449999999999939e-06
aF7.459999999999939e-06
aF7.469999999999939e-06
aF7.4799999999999385e-06
aF7.4899999999999385e-06
aF7.499999999999938e-06
aF7.509999999999938e-06
aF7.519999999999938e-06
aF7.529999999999938e-06
aF7.539999999999938e-06
aF7.549999999999938e-06
aF7.559999999999938e-06
aF7.569999999999938e-06
aF7.579999999999938e-06
aF7.5899999999999375e-06
aF7.599999999999937e-06
aF7.609999999999937e-06
aF7.619999999999937e-06
aF7.629999999999937e-06
aF7.639999999999937e-06
aF7.649999999999937e-06
aF7.659999999999937e-06
aF7.669999999999937e-06
aF7.679999999999937e-06
aF7.689999999999937e-06
aF7.699999999999936e-06
aF7.709999999999936e-06
aF7.719999999999936e-06
aF7.729999999999936e-06
aF7.739999999999936e-06
aF7.749999999999936e-06
aF7.759999999999936e-06
aF7.769999999999936e-06
aF7.779999999999936e-06
aF7.789999999999936e-06
aF7.799999999999935e-06
aF7.809999999999935e-06
aF7.819999999999935e-06
aF7.829999999999935e-06
aF7.839999999999935e-06
aF7.849999999999935e-06
aF7.859999999999935e-06
aF7.869999999999935e-06
aF7.879999999999935e-06
aF7.889999999999935e-06
aF7.899999999999935e-06
aF7.909999999999934e-06
aF7.919999999999934e-06
aF7.929999999999934e-06
aF7.939999999999934e-06
aF7.949999999999934e-06
aF7.959999999999934e-06
aF7.969999999999934e-06
aF7.979999999999934e-06
aF7.989999999999934e-06
aF7.999999999999934e-06
aF8.009999999999933e-06
aF8.019999999999933e-06
aF8.029999999999933e-06
aF8.039999999999933e-06
aF8.049999999999933e-06
aF8.059999999999933e-06
aF8.069999999999933e-06
aF8.079999999999933e-06
aF8.089999999999933e-06
aF8.099999999999933e-06
aF8.109999999999933e-06
aF8.119999999999932e-06
aF8.129999999999932e-06
aF8.139999999999932e-06
aF8.149999999999932e-06
aF8.159999999999932e-06
aF8.169999999999932e-06
aF8.179999999999932e-06
aF8.189999999999932e-06
aF8.199999999999932e-06
aF8.209999999999932e-06
aF8.219999999999931e-06
aF8.229999999999931e-06
aF8.239999999999931e-06
aF8.249999999999931e-06
aF8.259999999999931e-06
aF8.269999999999931e-06
aF8.279999999999931e-06
aF8.28999999999993e-06
aF8.29999999999993e-06
aF8.30999999999993e-06
aF8.31999999999993e-06
aF8.32999999999993e-06
aF8.33999999999993e-06
aF8.34999999999993e-06
aF8.35999999999993e-06
aF8.36999999999993e-06
aF8.37999999999993e-06
aF8.38999999999993e-06
aF8.39999999999993e-06
aF8.40999999999993e-06
aF8.41999999999993e-06
aF8.42999999999993e-06
aF8.43999999999993e-06
aF8.44999999999993e-06
aF8.45999999999993e-06
aF8.469999999999929e-06
aF8.479999999999929e-06
aF8.489999999999929e-06
aF8.499999999999929e-06
aF8.509999999999929e-06
aF8.519999999999929e-06
aF8.529999999999928e-06
aF8.539999999999928e-06
aF8.549999999999928e-06
aF8.559999999999928e-06
aF8.569999999999928e-06
aF8.579999999999928e-06
aF8.589999999999928e-06
aF8.599999999999928e-06
aF8.609999999999928e-06
aF8.619999999999928e-06
aF8.629999999999928e-06
aF8.639999999999927e-06
aF8.649999999999927e-06
aF8.659999999999927e-06
aF8.669999999999927e-06
aF8.679999999999927e-06
aF8.689999999999927e-06
aF8.699999999999927e-06
aF8.709999999999927e-06
aF8.719999999999927e-06
aF8.729999999999927e-06
aF8.739999999999926e-06
aF8.749999999999926e-06
aF8.759999999999926e-06
aF8.769999999999926e-06
aF8.779999999999926e-06
aF8.789999999999926e-06
aF8.799999999999926e-06
aF8.809999999999926e-06
aF8.819999999999926e-06
aF8.829999999999926e-06
aF8.839999999999926e-06
aF8.849999999999925e-06
aF8.859999999999925e-06
aF8.869999999999925e-06
aF8.879999999999925e-06
aF8.889999999999925e-06
aF8.899999999999925e-06
aF8.909999999999925e-06
aF8.919999999999925e-06
aF8.929999999999925e-06
aF8.939999999999925e-06
aF8.949999999999924e-06
aF8.959999999999924e-06
aF8.969999999999924e-06
aF8.979999999999924e-06
aF8.989999999999924e-06
aF8.999999999999924e-06
aF9.009999999999924e-06
aF9.019999999999924e-06
aF9.029999999999924e-06
aF9.039999999999924e-06
aF9.049999999999924e-06
aF9.059999999999923e-06
aF9.069999999999923e-06
aF9.079999999999923e-06
aF9.089999999999923e-06
aF9.099999999999923e-06
aF9.109999999999923e-06
aF9.119999999999923e-06
aF9.129999999999923e-06
aF9.139999999999923e-06
aF9.149999999999923e-06
aF9.159999999999922e-06
aF9.169999999999922e-06
aF9.179999999999922e-06
aF9.189999999999922e-06
aF9.199999999999922e-06
aF9.209999999999922e-06
aF9.219999999999922e-06
aF9.229999999999922e-06
aF9.239999999999922e-06
aF9.249999999999922e-06
aF9.259999999999922e-06
aF9.269999999999921e-06
aF9.279999999999921e-06
aF9.289999999999921e-06
aF9.299999999999921e-06
aF9.309999999999921e-06
aF9.319999999999921e-06
aF9.32999999999992e-06
aF9.33999999999992e-06
aF9.34999999999992e-06
aF9.35999999999992e-06
aF9.36999999999992e-06
aF9.37999999999992e-06
aF9.38999999999992e-06
aF9.39999999999992e-06
aF9.40999999999992e-06
aF9.41999999999992e-06
aF9.42999999999992e-06
aF9.43999999999992e-06
aF9.44999999999992e-06
aF9.45999999999992e-06
aF9.46999999999992e-06
aF9.47999999999992e-06
aF9.48999999999992e-06
aF9.49999999999992e-06
aF9.509999999999919e-06
aF9.519999999999919e-06
aF9.529999999999919e-06
aF9.539999999999919e-06
aF9.549999999999919e-06
aF9.559999999999919e-06
aF9.569999999999919e-06
aF9.579999999999918e-06
aF9.589999999999918e-06
aF9.599999999999918e-06
aF9.609999999999918e-06
aF9.619999999999918e-06
aF9.629999999999918e-06
aF9.639999999999918e-06
aF9.649999999999918e-06
aF9.659999999999918e-06
aF9.669999999999918e-06
aF9.679999999999917e-06
aF9.689999999999917e-06
aF9.699999999999917e-06
aF9.709999999999917e-06
aF9.719999999999917e-06
aF9.729999999999917e-06
aF9.739999999999917e-06
aF9.749999999999917e-06
aF9.759999999999917e-06
aF9.769999999999917e-06
aF9.779999999999917e-06
aF9.789999999999916e-06
aF9.799999999999916e-06
aF9.809999999999916e-06
aF9.819999999999916e-06
aF9.829999999999916e-06
aF9.839999999999916e-06
aF9.849999999999916e-06
aF9.859999999999916e-06
aF9.869999999999916e-06
aF9.879999999999916e-06
aF9.889999999999915e-06
aF9.899999999999915e-06
aF9.909999999999915e-06
aF9.919999999999915e-06
aF9.929999999999915e-06
aF9.939999999999915e-06
aF9.949999999999915e-06
aF9.959999999999915e-06
aF9.969999999999915e-06
aF9.979999999999915e-06
aF9.989999999999915e-06
aF9.999999999999914e-06
aF1.0009999999999914e-05
aF1.0019999999999914e-05
aF1.0029999999999914e-05
aF1.0039999999999914e-05
aF1.0049999999999914e-05
aF1.0059999999999914e-05
aF1.0069999999999914e-05
aF1.0079999999999914e-05
aF1.0089999999999914e-05
aF1.0099999999999913e-05
aF1.0109999999999913e-05
aF1.0119999999999913e-05
aF1.0129999999999913e-05
aF1.0139999999999913e-05
aF1.0149999999999913e-05
aF1.0159999999999913e-05
aF1.0169999999999913e-05
aF1.0179999999999913e-05
aF1.0189999999999913e-05
aF1.0199999999999913e-05
aF1.0209999999999912e-05
aF1.0219999999999912e-05
aF1.0229999999999912e-05
aF1.0239999999999912e-05
aF1.0249999999999912e-05
aF1.0259999999999912e-05
aF1.0269999999999912e-05
aF1.0279999999999912e-05
aF1.0289999999999912e-05
aF1.0299999999999912e-05
aF1.0309999999999911e-05
aF1.0319999999999911e-05
aF1.0329999999999911e-05
aF1.0339999999999911e-05
aF1.0349999999999911e-05
aF1.0359999999999911e-05
aF1.0369999999999911e-05
aF1.037999999999991e-05
aF1.038999999999991e-05
aF1.039999999999991e-05
aF1.040999999999991e-05
aF1.041999999999991e-05
aF1.042999999999991e-05
aF1.043999999999991e-05
aF1.044999999999991e-05
aF1.045999999999991e-05
aF1.046999999999991e-05
aF1.047999999999991e-05
aF1.048999999999991e-05
aF1.049999999999991e-05
aF1.050999999999991e-05
aF1.051999999999991e-05
aF1.052999999999991e-05
aF1.053999999999991e-05
aF1.054999999999991e-05
aF1.0559999999999909e-05
aF1.0569999999999909e-05
aF1.0579999999999909e-05
aF1.0589999999999909e-05
aF1.0599999999999909e-05
aF1.0609999999999909e-05
aF1.0619999999999908e-05
aF1.0629999999999908e-05
aF1.0639999999999908e-05
aF1.0649999999999908e-05
aF1.0659999999999908e-05
aF1.0669999999999908e-05
aF1.0679999999999908e-05
aF1.0689999999999908e-05
aF1.0699999999999908e-05
aF1.0709999999999908e-05
aF1.0719999999999908e-05
aF1.0729999999999907e-05
aF1.0739999999999907e-05
aF1.0749999999999907e-05
aF1.0759999999999907e-05
aF1.0769999999999907e-05
aF1.0779999999999907e-05
aF1.0789999999999907e-05
aF1.0799999999999907e-05
aF1.0809999999999907e-05
aF1.0819999999999907e-05
aF1.0829999999999906e-05
aF1.0839999999999906e-05
aF1.0849999999999906e-05
aF1.0859999999999906e-05
aF1.0869999999999906e-05
aF1.0879999999999906e-05
aF1.0889999999999906e-05
aF1.0899999999999906e-05
aF1.0909999999999906e-05
aF1.0919999999999906e-05
aF1.0929999999999906e-05
aF1.0939999999999905e-05
aF1.0949999999999905e-05
aF1.0959999999999905e-05
aF1.0969999999999905e-05
aF1.0979999999999905e-05
aF1.0989999999999905e-05
aF1.0999999999999905e-05
aF1.1009999999999905e-05
aF1.1019999999999905e-05
aF1.1029999999999905e-05
aF1.1039999999999904e-05
aF1.1049999999999904e-05
aF1.1059999999999904e-05
aF1.1069999999999904e-05
aF1.1079999999999904e-05
aF1.1089999999999904e-05
aF1.1099999999999904e-05
aF1.1109999999999904e-05
aF1.1119999999999904e-05
aF1.1129999999999904e-05
aF1.1139999999999904e-05
aF1.1149999999999903e-05
aF1.1159999999999903e-05
aF1.1169999999999903e-05
aF1.1179999999999903e-05
aF1.1189999999999903e-05
aF1.1199999999999903e-05
aF1.1209999999999903e-05
aF1.1219999999999903e-05
aF1.1229999999999903e-05
aF1.1239999999999903e-05
aF1.1249999999999902e-05
aF1.1259999999999902e-05
aF1.1269999999999902e-05
aF1.1279999999999902e-05
aF1.1289999999999902e-05
aF1.1299999999999902e-05
aF1.1309999999999902e-05
aF1.1319999999999902e-05
aF1.1329999999999902e-05
aF1.1339999999999902e-05
aF1.1349999999999901e-05
aF1.1359999999999901e-05
aF1.1369999999999901e-05
aF1.1379999999999901e-05
aF1.1389999999999901e-05
aF1.1399999999999901e-05
aF1.1409999999999901e-05
aF1.14199999999999e-05
aF1.14299999999999e-05
aF1.14399999999999e-05
aF1.14499999999999e-05
aF1.14599999999999e-05
aF1.14699999999999e-05
aF1.14799999999999e-05
aF1.14899999999999e-05
aF1.14999999999999e-05
aF1.15099999999999e-05
aF1.15199999999999e-05
aF1.15299999999999e-05
aF1.15399999999999e-05
aF1.15499999999999e-05
aF1.15599999999999e-05
aF1.15699999999999e-05
aF1.15799999999999e-05
aF1.15899999999999e-05
aF1.1599999999999899e-05
aF1.1609999999999899e-05
aF1.1619999999999899e-05
aF1.1629999999999899e-05
aF1.1639999999999899e-05
aF1.1649999999999899e-05
aF1.1659999999999899e-05
aF1.1669999999999898e-05
aF1.1679999999999898e-05
aF1.1689999999999898e-05
aF1.1699999999999898e-05
aF1.1709999999999898e-05
aF1.1719999999999898e-05
aF1.1729999999999898e-05
aF1.1739999999999898e-05
aF1.1749999999999898e-05
aF1.1759999999999898e-05
aF1.1769999999999897e-05
aF1.1779999999999897e-05
aF1.1789999999999897e-05
aF1.1799999999999897e-05
aF1.1809999999999897e-05
aF1.1819999999999897e-05
aF1.1829999999999897e-05
aF1.1839999999999897e-05
aF1.1849999999999897e-05
aF1.1859999999999897e-05
aF1.1869999999999897e-05
aF1.1879999999999896e-05
aF1.1889999999999896e-05
aF1.1899999999999896e-05
aF1.1909999999999896e-05
aF1.1919999999999896e-05
aF1.1929999999999896e-05
aF1.1939999999999896e-05
aF1.1949999999999896e-05
aF1.1959999999999896e-05
aF1.1969999999999896e-05
aF1.1979999999999895e-05
aF1.1989999999999895e-05
aF1.1999999999999895e-05
aF1.2009999999999895e-05
aF1.2019999999999895e-05
aF1.2029999999999895e-05
aF1.2039999999999895e-05
aF1.2049999999999895e-05
aF1.2059999999999895e-05
aF1.2069999999999895e-05
aF1.2079999999999895e-05
aF1.2089999999999894e-05
aF1.2099999999999894e-05
aF1.2109999999999894e-05
aF1.2119999999999894e-05
aF1.2129999999999894e-05
aF1.2139999999999894e-05
aF1.2149999999999894e-05
aF1.2159999999999894e-05
aF1.2169999999999894e-05
aF1.2179999999999894e-05
aF1.2189999999999893e-05
aF1.2199999999999893e-05
aF1.2209999999999893e-05
aF1.2219999999999893e-05
aF1.2229999999999893e-05
aF1.2239999999999893e-05
aF1.2249999999999893e-05
aF1.2259999999999893e-05
aF1.2269999999999893e-05
aF1.2279999999999893e-05
aF1.2289999999999892e-05
aF1.2299999999999892e-05
aF1.2309999999999892e-05
aF1.2319999999999892e-05
aF1.2329999999999892e-05
aF1.2339999999999892e-05
aF1.2349999999999892e-05
aF1.2359999999999892e-05
aF1.2369999999999892e-05
aF1.2379999999999892e-05
aF1.2389999999999892e-05
aF1.2399999999999891e-05
aF1.2409999999999891e-05
aF1.2419999999999891e-05
aF1.2429999999999891e-05
aF1.2439999999999891e-05
aF1.2449999999999891e-05
aF1.2459999999999891e-05
aF1.246999999999989e-05
aF1.247999999999989e-05
aF1.248999999999989e-05
aF1.249999999999989e-05
aF1.250999999999989e-05
aF1.251999999999989e-05
aF1.252999999999989e-05
aF1.253999999999989e-05
aF1.254999999999989e-05
aF1.255999999999989e-05
aF1.256999999999989e-05
aF1.257999999999989e-05
aF1.258999999999989e-05
aF1.259999999999989e-05
aF1.260999999999989e-05
aF1.261999999999989e-05
aF1.262999999999989e-05
aF1.2639999999999889e-05
aF1.2649999999999889e-05
aF1.2659999999999889e-05
aF1.2669999999999889e-05
aF1.2679999999999889e-05
aF1.2689999999999889e-05
aF1.2699999999999889e-05
aF1.2709999999999888e-05
aF1.2719999999999888e-05
aF1.2729999999999888e-05
aF1.2739999999999888e-05
aF1.2749999999999888e-05
aF1.2759999999999888e-05
aF1.2769999999999888e-05
aF1.2779999999999888e-05
aF1.2789999999999888e-05
aF1.2799999999999888e-05
aF1.2809999999999888e-05
aF1.2819999999999887e-05
aF1.2829999999999887e-05
aF1.2839999999999887e-05
aF1.2849999999999887e-05
aF1.2859999999999887e-05
aF1.2869999999999887e-05
aF1.2879999999999887e-05
aF1.2889999999999887e-05
aF1.2899999999999887e-05
aF1.2909999999999887e-05
aF1.2919999999999886e-05
aF1.2929999999999886e-05
aF1.2939999999999886e-05
aF1.2949999999999886e-05
aF1.2959999999999886e-05
aF1.2969999999999886e-05
aF1.2979999999999886e-05
aF1.2989999999999886e-05
aF1.2999999999999886e-05
aF1.3009999999999886e-05
aF1.3019999999999886e-05
aF1.3029999999999885e-05
aF1.3039999999999885e-05
aF1.3049999999999885e-05
aF1.3059999999999885e-05
aF1.3069999999999885e-05
aF1.3079999999999885e-05
aF1.3089999999999885e-05
aF1.3099999999999885e-05
aF1.3109999999999885e-05
aF1.3119999999999885e-05
aF1.3129999999999884e-05
aF1.3139999999999884e-05
aF1.3149999999999884e-05
aF1.3159999999999884e-05
aF1.3169999999999884e-05
aF1.3179999999999884e-05
aF1.3189999999999884e-05
aF1.3199999999999884e-05
aF1.3209999999999884e-05
aF1.3219999999999884e-05
aF1.3229999999999883e-05
aF1.3239999999999883e-05
aF1.3249999999999883e-05
aF1.3259999999999883e-05
aF1.3269999999999883e-05
aF1.3279999999999883e-05
aF1.3289999999999883e-05
aF1.3299999999999883e-05
aF1.3309999999999883e-05
aF1.3319999999999883e-05
aF1.3329999999999883e-05
aF1.3339999999999882e-05
aF1.3349999999999882e-05
aF1.3359999999999882e-05
aF1.3369999999999882e-05
aF1.3379999999999882e-05
aF1.3389999999999882e-05
aF1.3399999999999882e-05
aF1.3409999999999882e-05
aF1.3419999999999882e-05
aF1.3429999999999882e-05
aF1.3439999999999881e-05
aF1.3449999999999881e-05
aF1.3459999999999881e-05
aF1.3469999999999881e-05
aF1.3479999999999881e-05
aF1.3489999999999881e-05
aF1.3499999999999881e-05
aF1.350999999999988e-05
aF1.351999999999988e-05
aF1.352999999999988e-05
aF1.353999999999988e-05
aF1.354999999999988e-05
aF1.355999999999988e-05
aF1.356999999999988e-05
aF1.357999999999988e-05
aF1.358999999999988e-05
aF1.359999999999988e-05
aF1.360999999999988e-05
aF1.361999999999988e-05
aF1.362999999999988e-05
aF1.363999999999988e-05
aF1.364999999999988e-05
aF1.365999999999988e-05
aF1.366999999999988e-05
aF1.367999999999988e-05
aF1.3689999999999879e-05
aF1.3699999999999879e-05
aF1.3709999999999879e-05
aF1.3719999999999879e-05
aF1.3729999999999879e-05
aF1.3739999999999879e-05
aF1.3749999999999879e-05
aF1.3759999999999878e-05
aF1.3769999999999878e-05
aF1.3779999999999878e-05
aF1.3789999999999878e-05
aF1.3799999999999878e-05
aF1.3809999999999878e-05
aF1.3819999999999878e-05
aF1.3829999999999878e-05
aF1.3839999999999878e-05
aF1.3849999999999878e-05
aF1.3859999999999877e-05
aF1.3869999999999877e-05
aF1.3879999999999877e-05
aF1.3889999999999877e-05
aF1.3899999999999877e-05
aF1.3909999999999877e-05
aF1.3919999999999877e-05
aF1.3929999999999877e-05
aF1.3939999999999877e-05
aF1.3949999999999877e-05
aF1.3959999999999877e-05
aF1.3969999999999876e-05
aF1.3979999999999876e-05
aF1.3989999999999876e-05
aF1.3999999999999876e-05
aF1.4009999999999876e-05
aF1.4019999999999876e-05
aF1.4029999999999876e-05
aF1.4039999999999876e-05
aF1.4049999999999876e-05
aF1.4059999999999876e-05
aF1.4069999999999875e-05
aF1.4079999999999875e-05
aF1.4089999999999875e-05
aF1.4099999999999875e-05
aF1.4109999999999875e-05
aF1.4119999999999875e-05
aF1.4129999999999875e-05
aF1.4139999999999875e-05
aF1.4149999999999875e-05
aF1.4159999999999875e-05
aF1.4169999999999874e-05
aF1.4179999999999874e-05
aF1.4189999999999874e-05
aF1.4199999999999874e-05
aF1.4209999999999874e-05
aF1.4219999999999874e-05
aF1.4229999999999874e-05
aF1.4239999999999874e-05
aF1.4249999999999874e-05
aF1.4259999999999874e-05
aF1.4269999999999874e-05
aF1.4279999999999873e-05
aF1.4289999999999873e-05
aF1.4299999999999873e-05
aF1.4309999999999873e-05
aF1.4319999999999873e-05
aF1.4329999999999873e-05
aF1.4339999999999873e-05
aF1.4349999999999873e-05
aF1.4359999999999873e-05
aF1.4369999999999873e-05
aF1.4379999999999872e-05
aF1.4389999999999872e-05
aF1.4399999999999872e-05
aF1.4409999999999872e-05
aF1.4419999999999872e-05
aF1.4429999999999872e-05
aF1.4439999999999872e-05
aF1.4449999999999872e-05
aF1.4459999999999872e-05
aF1.4469999999999872e-05
aF1.4479999999999872e-05
aF1.4489999999999871e-05
aF1.4499999999999871e-05
aF1.4509999999999871e-05
aF1.4519999999999871e-05
aF1.4529999999999871e-05
aF1.4539999999999871e-05
aF1.4549999999999871e-05
aF1.455999999999987e-05
aF1.456999999999987e-05
aF1.457999999999987e-05
aF1.458999999999987e-05
aF1.459999999999987e-05
aF1.460999999999987e-05
aF1.461999999999987e-05
aF1.462999999999987e-05
aF1.463999999999987e-05
aF1.464999999999987e-05
aF1.465999999999987e-05
aF1.466999999999987e-05
aF1.467999999999987e-05
aF1.468999999999987e-05
aF1.469999999999987e-05
aF1.470999999999987e-05
aF1.471999999999987e-05
aF1.4729999999999869e-05
aF1.4739999999999869e-05
aF1.4749999999999869e-05
aF1.4759999999999869e-05
aF1.4769999999999869e-05
aF1.4779999999999869e-05
aF1.4789999999999869e-05
aF1.4799999999999868e-05
aF1.4809999999999868e-05
aF1.4819999999999868e-05
aF1.4829999999999868e-05
aF1.4839999999999868e-05
aF1.4849999999999868e-05
aF1.4859999999999868e-05
aF1.4869999999999868e-05
aF1.4879999999999868e-05
aF1.4889999999999868e-05
aF1.4899999999999868e-05
aF1.4909999999999867e-05
aF1.4919999999999867e-05
aF1.4929999999999867e-05
aF1.4939999999999867e-05
aF1.4949999999999867e-05
aF1.4959999999999867e-05
aF1.4969999999999867e-05
aF1.4979999999999867e-05
aF1.4989999999999867e-05
aF1.4999999999999867e-05
aF1.5009999999999866e-05
aF1.5019999999999866e-05
aF1.5029999999999866e-05
aF1.5039999999999866e-05
aF1.5049999999999866e-05
aF1.5059999999999866e-05
aF1.5069999999999866e-05
aF1.5079999999999866e-05
aF1.5089999999999866e-05
aF1.5099999999999866e-05
aF1.5109999999999865e-05
aF1.5119999999999865e-05
aF1.5129999999999865e-05
aF1.5139999999999865e-05
aF1.5149999999999865e-05
aF1.5159999999999865e-05
aF1.5169999999999865e-05
aF1.5179999999999865e-05
aF1.5189999999999865e-05
aF1.5199999999999865e-05
aF1.5209999999999865e-05
aF1.5219999999999864e-05
aF1.5229999999999864e-05
aF1.5239999999999864e-05
aF1.5249999999999864e-05
aF1.5259999999999864e-05
aF1.5269999999999866e-05
aF1.5279999999999867e-05
aF1.528999999999987e-05
aF1.529999999999987e-05
aF1.5309999999999872e-05
aF1.5319999999999874e-05
aF1.5329999999999875e-05
aF1.5339999999999877e-05
aF1.534999999999988e-05
aF1.535999999999988e-05
aF1.536999999999988e-05
aF1.5379999999999883e-05
aF1.5389999999999885e-05
aF1.5399999999999886e-05
aF1.5409999999999888e-05
aF1.541999999999989e-05
aF1.542999999999989e-05
aF1.5439999999999893e-05
aF1.5449999999999894e-05
aF1.5459999999999896e-05
aF1.5469999999999898e-05
aF1.54799999999999e-05
aF1.54899999999999e-05
aF1.5499999999999902e-05
aF1.5509999999999904e-05
aF1.5519999999999906e-05
aF1.5529999999999907e-05
aF1.553999999999991e-05
aF1.554999999999991e-05
aF1.5559999999999912e-05
aF1.5569999999999914e-05
aF1.5579999999999915e-05
aF1.5589999999999917e-05
aF1.559999999999992e-05
aF1.560999999999992e-05
aF1.561999999999992e-05
aF1.5629999999999923e-05
aF1.5639999999999925e-05
aF1.5649999999999926e-05
aF1.5659999999999928e-05
aF1.566999999999993e-05
aF1.567999999999993e-05
aF1.5689999999999933e-05
aF1.5699999999999934e-05
aF1.5709999999999936e-05
aF1.5719999999999938e-05
aF1.572999999999994e-05
aF1.573999999999994e-05
aF1.5749999999999942e-05
aF1.5759999999999944e-05
aF1.5769999999999946e-05
aF1.5779999999999947e-05
aF1.578999999999995e-05
aF1.579999999999995e-05
aF1.5809999999999952e-05
aF1.5819999999999954e-05
aF1.5829999999999955e-05
aF1.5839999999999957e-05
aF1.584999999999996e-05
aF1.585999999999996e-05
aF1.586999999999996e-05
aF1.5879999999999963e-05
aF1.5889999999999965e-05
aF1.5899999999999966e-05
aF1.5909999999999968e-05
aF1.591999999999997e-05
aF1.592999999999997e-05
aF1.5939999999999973e-05
aF1.5949999999999974e-05
aF1.5959999999999976e-05
aF1.5969999999999978e-05
aF1.597999999999998e-05
aF1.598999999999998e-05
aF1.5999999999999982e-05
aF1.6009999999999984e-05
aF1.6019999999999986e-05
aF1.6029999999999987e-05
aF1.603999999999999e-05
aF1.604999999999999e-05
aF1.6059999999999992e-05
aF1.6069999999999994e-05
aF1.6079999999999995e-05
aF1.6089999999999997e-05
aF1.61e-05
aF1.611e-05
aF1.612e-05
aF1.6130000000000003e-05
aF1.6140000000000005e-05
aF1.6150000000000006e-05
aF1.6160000000000008e-05
aF1.617000000000001e-05
aF1.618000000000001e-05
aF1.6190000000000013e-05
aF1.6200000000000014e-05
aF1.6210000000000016e-05
aF1.6220000000000017e-05
aF1.623000000000002e-05
aF1.624000000000002e-05
aF1.6250000000000022e-05
aF1.6260000000000024e-05
aF1.6270000000000025e-05
aF1.6280000000000027e-05
aF1.629000000000003e-05
aF1.630000000000003e-05
aF1.6310000000000032e-05
aF1.6320000000000033e-05
aF1.6330000000000035e-05
aF1.6340000000000037e-05
aF1.6350000000000038e-05
aF1.636000000000004e-05
aF1.637000000000004e-05
aF1.6380000000000043e-05
aF1.6390000000000045e-05
aF1.6400000000000046e-05
aF1.6410000000000048e-05
aF1.642000000000005e-05
aF1.643000000000005e-05
aF1.6440000000000053e-05
aF1.6450000000000054e-05
aF1.6460000000000056e-05
aF1.6470000000000057e-05
aF1.648000000000006e-05
aF1.649000000000006e-05
aF1.6500000000000062e-05
aF1.6510000000000064e-05
aF1.6520000000000065e-05
aF1.6530000000000067e-05
aF1.654000000000007e-05
aF1.655000000000007e-05
aF1.6560000000000072e-05
aF1.6570000000000073e-05
aF1.6580000000000075e-05
aF1.6590000000000077e-05
aF1.6600000000000078e-05
aF1.661000000000008e-05
aF1.662000000000008e-05
aF1.6630000000000083e-05
aF1.6640000000000085e-05
aF1.6650000000000086e-05
aF1.6660000000000088e-05
aF1.667000000000009e-05
aF1.668000000000009e-05
aF1.6690000000000093e-05
aF1.6700000000000094e-05
aF1.6710000000000096e-05
aF1.6720000000000097e-05
aF1.67300000000001e-05
aF1.67400000000001e-05
aF1.6750000000000102e-05
aF1.6760000000000104e-05
aF1.6770000000000105e-05
aF1.6780000000000107e-05
aF1.679000000000011e-05
aF1.680000000000011e-05
aF1.6810000000000112e-05
aF1.6820000000000113e-05
aF1.6830000000000115e-05
aF1.6840000000000117e-05
aF1.6850000000000118e-05
aF1.686000000000012e-05
aF1.687000000000012e-05
aF1.6880000000000123e-05
aF1.6890000000000125e-05
aF1.6900000000000126e-05
aF1.6910000000000128e-05
aF1.692000000000013e-05
aF1.693000000000013e-05
aF1.6940000000000133e-05
aF1.6950000000000134e-05
aF1.6960000000000136e-05
aF1.6970000000000137e-05
aF1.698000000000014e-05
aF1.699000000000014e-05
aF1.7000000000000142e-05
aF1.7010000000000144e-05
aF1.7020000000000145e-05
aF1.7030000000000147e-05
aF1.704000000000015e-05
aF1.705000000000015e-05
aF1.7060000000000152e-05
aF1.7070000000000153e-05
aF1.7080000000000155e-05
aF1.7090000000000157e-05
aF1.7100000000000158e-05
aF1.711000000000016e-05
aF1.712000000000016e-05
aF1.7130000000000163e-05
aF1.7140000000000165e-05
aF1.7150000000000166e-05
aF1.7160000000000168e-05
aF1.717000000000017e-05
aF1.718000000000017e-05
aF1.7190000000000173e-05
aF1.7200000000000174e-05
aF1.7210000000000176e-05
aF1.7220000000000177e-05
aF1.723000000000018e-05
aF1.724000000000018e-05
aF1.7250000000000182e-05
aF1.7260000000000184e-05
aF1.7270000000000185e-05
aF1.7280000000000187e-05
aF1.729000000000019e-05
aF1.730000000000019e-05
aF1.7310000000000192e-05
aF1.7320000000000193e-05
aF1.7330000000000195e-05
aF1.7340000000000197e-05
aF1.7350000000000198e-05
aF1.73600000000002e-05
aF1.73700000000002e-05
aF1.7380000000000203e-05
aF1.7390000000000205e-05
aF1.7400000000000206e-05
aF1.7410000000000208e-05
aF1.742000000000021e-05
aF1.743000000000021e-05
aF1.7440000000000212e-05
aF1.7450000000000214e-05
aF1.7460000000000216e-05
aF1.7470000000000217e-05
aF1.748000000000022e-05
aF1.749000000000022e-05
aF1.7500000000000222e-05
aF1.7510000000000224e-05
aF1.7520000000000225e-05
aF1.7530000000000227e-05
aF1.754000000000023e-05
aF1.755000000000023e-05
aF1.756000000000023e-05
aF1.7570000000000233e-05
aF1.7580000000000235e-05
aF1.7590000000000236e-05
aF1.7600000000000238e-05
aF1.761000000000024e-05
aF1.762000000000024e-05
aF1.7630000000000243e-05
aF1.7640000000000244e-05
aF1.7650000000000246e-05
aF1.7660000000000248e-05
aF1.767000000000025e-05
aF1.768000000000025e-05
aF1.7690000000000252e-05
aF1.7700000000000254e-05
aF1.7710000000000256e-05
aF1.7720000000000257e-05
aF1.773000000000026e-05
aF1.774000000000026e-05
aF1.7750000000000262e-05
aF1.7760000000000264e-05
aF1.7770000000000265e-05
aF1.7780000000000267e-05
aF1.779000000000027e-05
aF1.780000000000027e-05
aF1.781000000000027e-05
aF1.7820000000000273e-05
aF1.7830000000000275e-05
aF1.7840000000000276e-05
aF1.7850000000000278e-05
aF1.786000000000028e-05
aF1.787000000000028e-05
aF1.7880000000000283e-05
aF1.7890000000000284e-05
aF1.7900000000000286e-05
aF1.7910000000000288e-05
aF1.792000000000029e-05
aF1.793000000000029e-05
aF1.7940000000000292e-05
aF1.7950000000000294e-05
aF1.7960000000000296e-05
aF1.7970000000000297e-05
aF1.79800000000003e-05
aF1.79900000000003e-05
aF1.8000000000000302e-05
aF1.8010000000000304e-05
aF1.8020000000000305e-05
aF1.8030000000000307e-05
aF1.804000000000031e-05
aF1.805000000000031e-05
aF1.806000000000031e-05
aF1.8070000000000313e-05
aF1.8080000000000315e-05
aF1.8090000000000316e-05
aF1.8100000000000318e-05
aF1.811000000000032e-05
aF1.812000000000032e-05
aF1.8130000000000323e-05
aF1.8140000000000324e-05
aF1.8150000000000326e-05
aF1.8160000000000328e-05
aF1.817000000000033e-05
aF1.818000000000033e-05
aF1.8190000000000332e-05
aF1.8200000000000334e-05
aF1.8210000000000336e-05
aF1.8220000000000337e-05
aF1.823000000000034e-05
aF1.824000000000034e-05
aF1.8250000000000342e-05
aF1.8260000000000344e-05
aF1.8270000000000345e-05
aF1.8280000000000347e-05
aF1.829000000000035e-05
aF1.830000000000035e-05
aF1.831000000000035e-05
aF1.8320000000000353e-05
aF1.8330000000000355e-05
aF1.8340000000000356e-05
aF1.8350000000000358e-05
aF1.836000000000036e-05
aF1.837000000000036e-05
aF1.8380000000000363e-05
aF1.8390000000000364e-05
aF1.8400000000000366e-05
aF1.8410000000000368e-05
aF1.842000000000037e-05
aF1.843000000000037e-05
aF1.8440000000000372e-05
aF1.8450000000000374e-05
aF1.8460000000000376e-05
aF1.8470000000000377e-05
aF1.848000000000038e-05
aF1.849000000000038e-05
aF1.8500000000000382e-05
aF1.8510000000000384e-05
aF1.8520000000000385e-05
aF1.8530000000000387e-05
aF1.854000000000039e-05
aF1.855000000000039e-05
aF1.856000000000039e-05
aF1.8570000000000393e-05
aF1.8580000000000395e-05
aF1.8590000000000396e-05
aF1.8600000000000398e-05
aF1.86100000000004e-05
aF1.86200000000004e-05
aF1.8630000000000403e-05
aF1.8640000000000404e-05
aF1.8650000000000406e-05
aF1.8660000000000407e-05
aF1.867000000000041e-05
aF1.868000000000041e-05
aF1.8690000000000412e-05
aF1.8700000000000414e-05
aF1.8710000000000415e-05
aF1.8720000000000417e-05
aF1.873000000000042e-05
aF1.874000000000042e-05
aF1.8750000000000422e-05
aF1.8760000000000423e-05
aF1.8770000000000425e-05
aF1.8780000000000427e-05
aF1.8790000000000428e-05
aF1.880000000000043e-05
aF1.881000000000043e-05
aF1.8820000000000433e-05
aF1.8830000000000435e-05
aF1.8840000000000436e-05
aF1.8850000000000438e-05
aF1.886000000000044e-05
aF1.887000000000044e-05
aF1.8880000000000443e-05
aF1.8890000000000444e-05
aF1.8900000000000446e-05
aF1.8910000000000447e-05
aF1.892000000000045e-05
aF1.893000000000045e-05
aF1.8940000000000452e-05
aF1.8950000000000454e-05
aF1.8960000000000455e-05
aF1.8970000000000457e-05
aF1.898000000000046e-05
aF1.899000000000046e-05
aF1.9000000000000462e-05
aF1.9010000000000463e-05
aF1.9020000000000465e-05
aF1.9030000000000467e-05
aF1.9040000000000468e-05
aF1.905000000000047e-05
aF1.906000000000047e-05
aF1.9070000000000473e-05
aF1.9080000000000475e-05
aF1.9090000000000476e-05
aF1.9100000000000478e-05
aF1.911000000000048e-05
aF1.912000000000048e-05
aF1.9130000000000483e-05
aF1.9140000000000484e-05
aF1.9150000000000486e-05
aF1.9160000000000487e-05
aF1.917000000000049e-05
aF1.918000000000049e-05
aF1.9190000000000492e-05
aF1.9200000000000494e-05
aF1.9210000000000495e-05
aF1.9220000000000497e-05
aF1.92300000000005e-05
aF1.92400000000005e-05
aF1.9250000000000502e-05
aF1.9260000000000503e-05
aF1.9270000000000505e-05
aF1.9280000000000507e-05
aF1.9290000000000508e-05
aF1.930000000000051e-05
aF1.931000000000051e-05
aF1.9320000000000513e-05
aF1.9330000000000515e-05
aF1.9340000000000516e-05
aF1.9350000000000518e-05
aF1.936000000000052e-05
aF1.937000000000052e-05
aF1.9380000000000523e-05
aF1.9390000000000524e-05
aF1.9400000000000526e-05
aF1.9410000000000527e-05
aF1.942000000000053e-05
aF1.943000000000053e-05
aF1.9440000000000532e-05
aF1.9450000000000534e-05
aF1.9460000000000535e-05
aF1.9470000000000537e-05
aF1.948000000000054e-05
aF1.949000000000054e-05
aF1.9500000000000542e-05
aF1.9510000000000543e-05
aF1.9520000000000545e-05
aF1.9530000000000547e-05
aF1.9540000000000548e-05
aF1.955000000000055e-05
aF1.956000000000055e-05
aF1.9570000000000553e-05
aF1.9580000000000555e-05
aF1.9590000000000556e-05
aF1.9600000000000558e-05
aF1.961000000000056e-05
aF1.962000000000056e-05
aF1.9630000000000563e-05
aF1.9640000000000564e-05
aF1.9650000000000566e-05
aF1.9660000000000567e-05
aF1.967000000000057e-05
aF1.968000000000057e-05
aF1.9690000000000572e-05
aF1.9700000000000574e-05
aF1.9710000000000575e-05
aF1.9720000000000577e-05
aF1.973000000000058e-05
aF1.974000000000058e-05
aF1.9750000000000582e-05
aF1.9760000000000583e-05
aF1.9770000000000585e-05
aF1.9780000000000587e-05
aF1.9790000000000588e-05
aF1.980000000000059e-05
aF1.981000000000059e-05
aF1.9820000000000593e-05
aF1.9830000000000594e-05
aF1.9840000000000596e-05
aF1.9850000000000598e-05
aF1.98600000000006e-05
aF1.98700000000006e-05
aF1.9880000000000602e-05
aF1.9890000000000604e-05
aF1.9900000000000606e-05
aF1.9910000000000607e-05
aF1.992000000000061e-05
aF1.993000000000061e-05
aF1.9940000000000612e-05
aF1.9950000000000614e-05
aF1.9960000000000615e-05
aF1.9970000000000617e-05
aF1.998000000000062e-05
aF1.999000000000062e-05
aF2.000000000000062e-05
aF2.0010000000000623e-05
aF2.0020000000000625e-05
aF2.0030000000000626e-05
aF2.0040000000000628e-05
aF2.005000000000063e-05
aF2.006000000000063e-05
aF2.0070000000000633e-05
aF2.0080000000000634e-05
aF2.0090000000000636e-05
aF2.0100000000000638e-05
aF2.011000000000064e-05
aF2.012000000000064e-05
aF2.0130000000000642e-05
aF2.0140000000000644e-05
aF2.0150000000000646e-05
aF2.0160000000000647e-05
aF2.017000000000065e-05
aF2.018000000000065e-05
aF2.0190000000000652e-05
aF2.0200000000000654e-05
aF2.0210000000000655e-05
aF2.0220000000000657e-05
aF2.023000000000066e-05
aF2.024000000000066e-05
aF2.025000000000066e-05
aF2.0260000000000663e-05
aF2.0270000000000665e-05
aF2.0280000000000666e-05
aF2.0290000000000668e-05
aF2.030000000000067e-05
aF2.031000000000067e-05
aF2.0320000000000673e-05
aF2.0330000000000674e-05
aF2.0340000000000676e-05
aF2.0350000000000678e-05
aF2.036000000000068e-05
aF2.037000000000068e-05
aF2.0380000000000682e-05
aF2.0390000000000684e-05
aF2.0400000000000686e-05
aF2.0410000000000687e-05
aF2.042000000000069e-05
aF2.043000000000069e-05
aF2.0440000000000692e-05
aF2.0450000000000694e-05
aF2.0460000000000695e-05
aF2.0470000000000697e-05
aF2.04800000000007e-05
aF2.04900000000007e-05
aF2.05000000000007e-05
aF2.0510000000000703e-05
aF2.0520000000000705e-05
aF2.0530000000000706e-05
aF2.0540000000000708e-05
aF2.055000000000071e-05
a.