(lp0
F9.999999999999914e-06
aF4.999999999999962e-06
aF4.999999999999962e-06
aF9.999999999999914e-06
aF4.999999999999962e-06
aF4.999999999999962e-06
aF9.999999999999914e-06
aF4.999999999999962e-06
aF4.999999999999962e-06
aF4.999999999999962e-06
aF4.999999999999962e-06
aF4.999999999999962e-06
aF4.999999999999962e-06
aF4.999999999999962e-06
aF4.999999999999962e-06
aF4.999999999999962e-06
aF4.999999999999962e-06
aF4.999999999999962e-06
aF4.999999999999962e-06
aF4.999999999999962e-06
aF4.999999999999962e-06
aF4.999999999999962e-06
aF9.999999999999914e-06
aF4.999999999999962e-06
aF4.999999999999962e-06
aF4.999999999999962e-06
aF9.999999999999914e-06
aF9.999999999999914e-06
aF4.999999999999962e-06
aF4.999999999999962e-06
aF4.999999999999962e-06
aF4.999999999999962e-06
aF4.999999999999962e-06
aF4.999999999999962e-06
aF4.999999999999962e-06
aF4.999999999999962e-06
aF4.999999999999962e-06
aF4.999999999999962e-06
aF4.999999999999962e-06
aF4.999999999999962e-06
aF4.999999999999962e-06
aF4.999999999999962e-06
aF4.999999999999962e-06
aF4.999999999999962e-06
aF4.999999999999962e-06
aF4.999999999999962e-06
aF4.999999999999962e-06
aF4.999999999999962e-06
aF4.999999999999962e-06
aF4.999999999999962e-06
aF4.999999999999962e-06
aF4.999999999999962e-06
aF4.999999999999962e-06
aF9.999999999999914e-06
aF4.999999999999962e-06
aF4.999999999999962e-06
aF4.999999999999962e-06
aF9.999999999999914e-06
aF4.999999999999962e-06
aF4.999999999999962e-06
aF4.999999999999962e-06
aF4.999999999999962e-06
aF4.999999999999962e-06
aF9.999999999999914e-06
aF4.999999999999962e-06
aF4.999999999999962e-06
aF9.999999999999914e-06
aF4.999999999999962e-06
aF4.999999999999962e-06
aF4.999999999999962e-06
aF4.999999999999962e-06
aF4.999999999999962e-06
aF4.999999999999962e-06
aF4.999999999999962e-06
aF4.999999999999962e-06
aF4.999999999999962e-06
aF4.999999999999962e-06
aF4.999999999999962e-06
aF4.999999999999962e-06
aF4.999999999999962e-06
aF4.999999999999962e-06
aF4.999999999999962e-06
aF4.999999999999962e-06
aF4.999999999999962e-06
aF4.999999999999962e-06
aF4.999999999999962e-06
aF9.999999999999914e-06
aF4.999999999999962e-06
aF9.999999999999914e-06
aF4.999999999999962e-06
aF4.999999999999962e-06
aF4.999999999999962e-06
aF4.999999999999962e-06
aF4.999999999999962e-06
aF9.999999999999914e-06
aF9.999999999999914e-06
aF4.999999999999962e-06
aF4.999999999999962e-06
aF4.999999999999962e-06
aF4.999999999999962e-06
aF4.999999999999962e-06
aF4.999999999999962e-06
aF4.999999999999962e-06
aF9.999999999999914e-06
aF4.999999999999962e-06
aF4.999999999999962e-06
aF9.999999999999914e-06
aF4.999999999999962e-06
aF4.999999999999962e-06
aF9.999999999999914e-06
aF4.999999999999962e-06
aF4.999999999999962e-06
aF4.999999999999962e-06
aF4.999999999999962e-06
aF4.999999999999962e-06
aF4.999999999999962e-06
aF4.999999999999962e-06
aF4.999999999999962e-06
aF4.999999999999962e-06
aF4.999999999999962e-06
aF9.999999999999914e-06
aF4.999999999999962e-06
aF4.999999999999962e-06
aF9.999999999999914e-06
aF4.999999999999962e-06
aF4.999999999999962e-06
aF4.999999999999962e-06
aF9.999999999999914e-06
aF4.999999999999962e-06
aF4.999999999999962e-06
aF4.999999999999962e-06
aF4.999999999999962e-06
aF9.999999999999914e-06
aF4.999999999999962e-06
aF4.999999999999962e-06
aF2.000000000000062e-05
aF4.999999999999962e-06
aF4.999999999999962e-06
aF4.999999999999962e-06
aF9.999999999999914e-06
aF4.999999999999962e-06
aF4.999999999999962e-06
aF4.999999999999962e-06
aF9.999999999999914e-06
aF4.999999999999962e-06
aF4.999999999999962e-06
aF4.999999999999962e-06
aF4.999999999999962e-06
aF4.999999999999962e-06
aF9.999999999999914e-06
aF4.999999999999962e-06
aF4.999999999999962e-06
aF4.999999999999962e-06
aF4.999999999999962e-06
aF9.999999999999914e-06
aF4.999999999999962e-06
aF4.999999999999962e-06
aF9.999999999999914e-06
aF4.999999999999962e-06
aF4.999999999999962e-06
aF4.999999999999962e-06
aF4.999999999999962e-06
aF9.999999999999914e-06
aF4.999999999999962e-06
aF4.999999999999962e-06
aF4.999999999999962e-06
aF4.999999999999962e-06
aF9.999999999999914e-06
aF4.999999999999962e-06
a.