(lp0
F4.999999999999962e-06
aF4.999999999999962e-06
aF4.999999999999962e-06
aF9.999999999999914e-06
aF4.999999999999962e-06
aF4.999999999999962e-06
aF4.999999999999962e-06
aF4.999999999999962e-06
aF4.999999999999962e-06
aF4.999999999999962e-06
aF4.999999999999962e-06
aF4.999999999999962e-06
aF4.999999999999962e-06
aF4.999999999999962e-06
aF4.999999999999962e-06
aF4.999999999999962e-06
aF4.999999999999962e-06
aF4.999999999999962e-06
aF4.999999999999962e-06
aF4.999999999999962e-06
aF4.999999999999962e-06
aF4.999999999999962e-06
aF9.999999999999914e-06
aF4.999999999999962e-06
aF4.999999999999962e-06
aF4.999999999999962e-06
aF4.999999999999962e-06
aF9.999999999999914e-06
aF4.999999999999962e-06
aF4.999999999999962e-06
aF9.999999999999914e-06
aF4.999999999999962e-06
aF4.999999999999962e-06
aF4.999999999999962e-06
aF4.999999999999962e-06
aF9.999999999999914e-06
aF4.999999999999962e-06
aF4.999999999999962e-06
aF9.999999999999914e-06
aF9.999999999999914e-06
aF4.999999999999962e-06
aF4.999999999999962e-06
aF4.999999999999962e-06
aF9.999999999999914e-06
aF9.999999999999914e-06
aF4.999999999999962e-06
aF1.4999999999999867e-05
aF4.999999999999962e-06
aF9.999999999999914e-06
aF4.999999999999962e-06
aF9.999999999999914e-06
aF9.999999999999914e-06
aF4.999999999999962e-06
aF4.999999999999962e-06
aF9.999999999999914e-06
aF4.999999999999962e-06
aF4.999999999999962e-06
aF4.999999999999962e-06
aF4.999999999999962e-06
aF4.999999999999962e-06
aF4.999999999999962e-06
aF4.999999999999962e-06
aF4.999999999999962e-06
aF4.999999999999962e-06
aF4.999999999999962e-06
aF4.999999999999962e-06
aF4.999999999999962e-06
aF4.999999999999962e-06
aF4.999999999999962e-06
aF4.999999999999962e-06
aF4.999999999999962e-06
aF4.999999999999962e-06
aF4.999999999999962e-06
aF4.999999999999962e-06
aF4.999999999999962e-06
aF4.999999999999962e-06
aF4.999999999999962e-06
aF4.999999999999962e-06
aF4.999999999999962e-06
aF4.999999999999962e-06
aF4.999999999999962e-06
aF4.999999999999962e-06
aF4.999999999999962e-06
aF9.999999999999914e-06
aF4.999999999999962e-06
aF4.999999999999962e-06
aF4.999999999999962e-06
aF4.999999999999962e-06
aF9.999999999999914e-06
aF4.999999999999962e-06
aF4.999999999999962e-06
aF4.999999999999962e-06
aF4.999999999999962e-06
aF4.999999999999962e-06
aF4.999999999999962e-06
aF4.999999999999962e-06
aF4.999999999999962e-06
aF4.999999999999962e-06
aF4.999999999999962e-06
aF9.999999999999914e-06
aF9.999999999999914e-06
aF4.999999999999962e-06
aF4.999999999999962e-06
aF4.999999999999962e-06
aF4.999999999999962e-06
aF4.999999999999962e-06
aF4.999999999999962e-06
aF4.999999999999962e-06
aF4.999999999999962e-06
aF9.999999999999914e-06
aF4.999999999999962e-06
aF9.999999999999914e-06
aF4.999999999999962e-06
aF4.999999999999962e-06
aF4.999999999999962e-06
aF9.999999999999914e-06
aF4.999999999999962e-06
aF4.999999999999962e-06
aF4.999999999999962e-06
aF4.999999999999962e-06
aF4.999999999999962e-06
aF4.999999999999962e-06
aF4.999999999999962e-06
aF4.999999999999962e-06
aF4.999999999999962e-06
aF4.999999999999962e-06
aF4.999999999999962e-06
aF4.999999999999962e-06
aF9.999999999999914e-06
aF4.999999999999962e-06
aF1.4999999999999867e-05
aF4.999999999999962e-06
aF4.999999999999962e-06
aF4.999999999999962e-06
aF4.999999999999962e-06
aF4.999999999999962e-06
aF4.999999999999962e-06
aF9.999999999999914e-06
aF9.999999999999914e-06
aF4.999999999999962e-06
aF9.999999999999914e-06
aF4.999999999999962e-06
aF4.999999999999962e-06
aF4.999999999999962e-06
aF4.999999999999962e-06
aF4.999999999999962e-06
aF4.999999999999962e-06
aF4.999999999999962e-06
aF9.999999999999914e-06
aF4.999999999999962e-06
aF4.999999999999962e-06
aF4.999999999999962e-06
aF4.999999999999962e-06
aF9.999999999999914e-06
aF4.999999999999962e-06
aF4.999999999999962e-06
aF9.999999999999914e-06
aF4.999999999999962e-06
aF4.999999999999962e-06
aF9.999999999999914e-06
aF4.999999999999962e-06
aF4.999999999999962e-06
aF4.999999999999962e-06
aF4.999999999999962e-06
aF4.999999999999962e-06
aF4.999999999999962e-06
aF4.999999999999962e-06
aF4.999999999999962e-06
a.