(lp0
F4.000000000000029e-07
aF3.000000000000007e-07
aF8.499999999999931e-07
aF5.500000000000024e-07
aF5.500000000000024e-07
aF2.4999999999999957e-07
aF5.500000000000024e-07
aF2.4999999999999957e-07
aF7.999999999999947e-07
aF4.50000000000004e-07
aF5.500000000000024e-07
aF1.0499999999999971e-06
aF3.000000000000007e-07
aF9.999999999999989e-08
aF8.999999999999916e-07
aF4.000000000000029e-07
aF6.499999999999993e-07
aF1.9999999999999946e-07
aF6.999999999999977e-07
aF4.000000000000029e-07
a.