(lp0
F6.000000000000008e-07
aF7.999999999999947e-07
aF2.4999999999999957e-07
aF3.000000000000007e-07
aF5.000000000000039e-07
aF1.0499999999999971e-06
aF4.000000000000029e-07
aF7.499999999999962e-07
aF5.500000000000024e-07
aF3.500000000000018e-07
aF4.000000000000029e-07
aF3.000000000000007e-07
aF7.499999999999962e-07
aF3.000000000000007e-07
aF5.000000000000039e-07
aF6.000000000000008e-07
aF3.000000000000007e-07
aF4.000000000000029e-07
aF5.500000000000024e-07
aF5.000000000000039e-07
a.