(lp0
F5.000000000000003e-07
aF5.000000000000003e-07
aF1.0000000000000004e-06
aF1.0000000000000004e-06
aF1.4999999999999956e-06
aF5.000000000000003e-07
aF1.999999999999991e-06
aF5.000000000000003e-07
aF5.000000000000003e-07
aF1.4999999999999956e-06
aF5.000000000000003e-07
aF5.000000000000003e-07
aF5.000000000000003e-07
aF5.000000000000003e-07
aF1.0000000000000004e-06
aF1.0000000000000004e-06
aF1.0000000000000004e-06
aF5.000000000000003e-07
aF1.0000000000000004e-06
aF5.000000000000003e-07
aF1.0000000000000004e-06
aF1.0000000000000004e-06
aF5.000000000000003e-07
aF1.0000000000000004e-06
aF1.0000000000000004e-06
aF1.0000000000000004e-06
aF1.999999999999991e-06
aF1.0000000000000004e-06
aF5.000000000000003e-07
aF1.0000000000000004e-06
aF1.4999999999999956e-06
aF5.000000000000003e-07
aF5.000000000000003e-07
aF1.0000000000000004e-06
aF1.4999999999999956e-06
aF5.000000000000003e-07
aF1.4999999999999956e-06
aF1.0000000000000004e-06
aF1.0000000000000004e-06
aF2.4999999999999862e-06
aF1.4999999999999956e-06
aF1.0000000000000004e-06
aF1.4999999999999956e-06
aF1.0000000000000004e-06
aF1.4999999999999956e-06
aF1.4999999999999956e-06
aF1.4999999999999956e-06
aF1.4999999999999956e-06
aF5.000000000000003e-07
aF1.999999999999991e-06
aF5.000000000000003e-07
aF5.000000000000003e-07
aF2.4999999999999862e-06
aF1.4999999999999956e-06
aF1.4999999999999956e-06
aF1.0000000000000004e-06
aF5.000000000000003e-07
aF1.0000000000000004e-06
aF1.0000000000000004e-06
aF1.0000000000000004e-06
aF1.4999999999999956e-06
aF5.000000000000003e-07
aF5.000000000000003e-07
aF2.9999999999999814e-06
aF5.000000000000003e-07
aF5.000000000000003e-07
aF1.4999999999999956e-06
aF1.4999999999999956e-06
aF1.0000000000000004e-06
aF1.4999999999999956e-06
aF5.000000000000003e-07
aF1.4999999999999956e-06
aF5.000000000000003e-07
aF2.9999999999999814e-06
aF5.000000000000003e-07
aF5.000000000000003e-07
aF1.0000000000000004e-06
aF5.000000000000003e-07
aF1.0000000000000004e-06
aF5.000000000000003e-07
aF1.0000000000000004e-06
aF1.4999999999999956e-06
aF2.4999999999999862e-06
aF1.4999999999999956e-06
aF1.0000000000000004e-06
aF2.4999999999999862e-06
aF1.0000000000000004e-06
aF1.4999999999999956e-06
aF1.4999999999999956e-06
aF2.4999999999999862e-06
aF1.0000000000000004e-06
aF1.4999999999999956e-06
aF1.4999999999999956e-06
aF1.999999999999991e-06
aF1.0000000000000004e-06
aF5.000000000000003e-07
aF1.4999999999999956e-06
aF1.999999999999991e-06
aF5.000000000000003e-07
aF5.000000000000003e-07
aF1.0000000000000004e-06
aF1.4999999999999956e-06
aF1.0000000000000004e-06
aF1.4999999999999956e-06
aF5.000000000000003e-07
aF1.0000000000000004e-06
aF1.4999999999999956e-06
aF5.000000000000003e-07
aF2.4999999999999862e-06
aF5.000000000000003e-07
aF1.4999999999999956e-06
aF1.0000000000000004e-06
aF5.000000000000003e-07
aF1.0000000000000004e-06
aF5.000000000000003e-07
aF1.4999999999999956e-06
aF1.0000000000000004e-06
aF1.0000000000000004e-06
aF1.0000000000000004e-06
aF1.4999999999999956e-06
aF2.4999999999999862e-06
aF5.000000000000003e-07
aF5.000000000000003e-07
aF1.0000000000000004e-06
aF5.000000000000003e-07
aF1.0000000000000004e-06
aF1.0000000000000004e-06
aF1.0000000000000004e-06
aF1.4999999999999956e-06
aF2.4999999999999862e-06
aF5.000000000000003e-07
aF5.000000000000003e-07
aF1.4999999999999956e-06
aF5.000000000000003e-07
aF1.0000000000000004e-06
aF5.000000000000003e-07
aF1.0000000000000004e-06
aF1.0000000000000004e-06
aF5.000000000000003e-07
aF5.000000000000003e-07
aF5.000000000000003e-07
aF1.4999999999999956e-06
aF1.0000000000000004e-06
aF1.4999999999999956e-06
aF1.4999999999999956e-06
aF1.0000000000000004e-06
aF2.4999999999999862e-06
aF1.0000000000000004e-06
aF1.4999999999999956e-06
aF5.000000000000003e-07
aF5.000000000000003e-07
aF1.0000000000000004e-06
aF5.000000000000003e-07
aF5.000000000000003e-07
aF1.0000000000000004e-06
aF1.999999999999991e-06
aF1.0000000000000004e-06
aF1.0000000000000004e-06
aF1.0000000000000004e-06
aF1.4999999999999956e-06
aF1.4999999999999956e-06
aF1.0000000000000004e-06
aF1.4999999999999956e-06
aF1.0000000000000004e-06
aF1.999999999999991e-06
aF5.000000000000003e-07
aF1.999999999999991e-06
aF1.0000000000000004e-06
aF5.000000000000003e-07
aF5.000000000000003e-07
aF2.4999999999999862e-06
aF5.000000000000003e-07
aF1.0000000000000004e-06
aF1.4999999999999956e-06
aF1.999999999999991e-06
aF1.4999999999999956e-06
aF5.000000000000003e-07
aF1.4999999999999956e-06
aF1.4999999999999956e-06
aF1.0000000000000004e-06
aF1.0000000000000004e-06
aF1.0000000000000004e-06
aF1.0000000000000004e-06
aF5.000000000000003e-07
aF5.000000000000003e-07
aF1.4999999999999956e-06
aF1.0000000000000004e-06
aF5.000000000000003e-07
aF1.0000000000000004e-06
aF5.000000000000003e-07
aF1.999999999999991e-06
aF1.0000000000000004e-06
aF1.999999999999991e-06
aF1.0000000000000004e-06
aF1.0000000000000004e-06
aF1.0000000000000004e-06
aF5.000000000000003e-07
aF2.9999999999999814e-06
aF1.0000000000000004e-06
aF1.0000000000000004e-06
aF1.0000000000000004e-06
aF5.000000000000003e-07
aF1.4999999999999956e-06
aF1.999999999999991e-06
aF1.0000000000000004e-06
aF5.000000000000003e-07
aF1.0000000000000004e-06
aF1.0000000000000004e-06
aF1.0000000000000004e-06
aF2.4999999999999862e-06
aF1.0000000000000004e-06
aF1.0000000000000004e-06
aF1.4999999999999956e-06
aF5.000000000000003e-07
aF1.4999999999999956e-06
aF5.000000000000003e-07
aF1.0000000000000004e-06
aF1.4999999999999956e-06
aF1.4999999999999956e-06
aF1.4999999999999956e-06
aF1.0000000000000004e-06
aF1.999999999999991e-06
aF1.4999999999999956e-06
aF5.000000000000003e-07
aF1.0000000000000004e-06
aF1.0000000000000004e-06
aF2.9999999999999814e-06
aF5.000000000000003e-07
aF1.0000000000000004e-06
aF1.4999999999999956e-06
aF5.000000000000003e-07
aF5.000000000000003e-07
aF1.999999999999991e-06
aF1.4999999999999956e-06
aF1.0000000000000004e-06
aF1.4999999999999956e-06
aF2.4999999999999862e-06
aF5.000000000000003e-07
aF5.000000000000003e-07
aF5.000000000000003e-07
aF1.0000000000000004e-06
aF1.4999999999999956e-06
aF1.0000000000000004e-06
aF1.0000000000000004e-06
aF5.000000000000003e-07
aF1.0000000000000004e-06
aF5.000000000000003e-07
aF1.0000000000000004e-06
aF1.4999999999999956e-06
aF1.0000000000000004e-06
aF5.000000000000003e-07
aF1.999999999999991e-06
aF1.999999999999991e-06
aF1.0000000000000004e-06
aF1.4999999999999956e-06
aF5.000000000000003e-07
aF5.000000000000003e-07
aF1.0000000000000004e-06
aF5.000000000000003e-07
aF5.000000000000003e-07
aF1.0000000000000004e-06
aF1.4999999999999956e-06
aF1.4999999999999956e-06
aF1.4999999999999956e-06
aF1.4999999999999956e-06
aF1.999999999999991e-06
aF5.000000000000003e-07
aF1.4999999999999956e-06
aF1.4999999999999956e-06
aF5.000000000000003e-07
aF1.0000000000000004e-06
aF5.000000000000003e-07
aF5.000000000000003e-07
aF1.0000000000000004e-06
aF5.000000000000003e-07
aF2.4999999999999862e-06
aF5.000000000000003e-07
aF1.4999999999999956e-06
aF1.4999999999999956e-06
aF1.0000000000000004e-06
aF2.9999999999999814e-06
aF1.0000000000000004e-06
aF5.000000000000003e-07
aF5.000000000000003e-07
aF1.4999999999999956e-06
aF5.000000000000003e-07
aF1.0000000000000004e-06
aF1.0000000000000004e-06
aF1.4999999999999956e-06
aF1.4999999999999956e-06
aF5.000000000000003e-07
aF1.0000000000000004e-06
aF1.4999999999999956e-06
aF1.0000000000000004e-06
aF1.4999999999999956e-06
aF1.999999999999991e-06
aF5.000000000000003e-07
aF1.999999999999991e-06
aF1.4999999999999956e-06
aF2.9999999999999814e-06
aF1.999999999999991e-06
aF5.000000000000003e-07
aF2.4999999999999862e-06
aF1.0000000000000004e-06
aF1.0000000000000004e-06
aF5.000000000000003e-07
aF5.000000000000003e-07
aF1.0000000000000004e-06
aF1.4999999999999956e-06
aF1.0000000000000004e-06
aF5.000000000000003e-07
aF1.0000000000000004e-06
aF5.000000000000003e-07
aF1.0000000000000004e-06
aF5.000000000000003e-07
aF1.999999999999991e-06
aF2.4999999999999862e-06
aF1.0000000000000004e-06
aF1.4999999999999956e-06
aF1.4999999999999956e-06
aF1.4999999999999956e-06
aF1.0000000000000004e-06
aF5.000000000000003e-07
aF5.000000000000003e-07
aF1.0000000000000004e-06
aF5.000000000000003e-07
aF1.0000000000000004e-06
aF1.4999999999999956e-06
aF1.4999999999999956e-06
aF1.0000000000000004e-06
aF1.0000000000000004e-06
aF1.4999999999999956e-06
aF5.000000000000003e-07
aF1.4999999999999956e-06
aF5.000000000000003e-07
aF5.000000000000003e-07
aF1.0000000000000004e-06
aF5.000000000000003e-07
aF1.4999999999999956e-06
aF1.0000000000000004e-06
aF5.000000000000003e-07
aF1.999999999999991e-06
aF1.999999999999991e-06
aF5.000000000000003e-07
aF1.4999999999999956e-06
aF1.4999999999999956e-06
aF1.4999999999999956e-06
aF1.0000000000000004e-06
aF1.999999999999991e-06
aF1.4999999999999956e-06
aF1.0000000000000004e-06
aF1.999999999999991e-06
aF1.0000000000000004e-06
aF1.0000000000000004e-06
aF1.0000000000000004e-06
aF1.4999999999999956e-06
aF5.000000000000003e-07
aF1.0000000000000004e-06
aF5.000000000000003e-07
aF5.000000000000003e-07
aF1.999999999999991e-06
aF1.0000000000000004e-06
aF5.000000000000003e-07
aF1.0000000000000004e-06
aF1.4999999999999956e-06
aF1.0000000000000004e-06
aF1.0000000000000004e-06
aF1.0000000000000004e-06
aF1.4999999999999956e-06
aF1.4999999999999956e-06
aF1.4999999999999956e-06
aF1.0000000000000004e-06
aF1.0000000000000004e-06
aF5.000000000000003e-07
aF1.0000000000000004e-06
aF1.4999999999999956e-06
aF1.0000000000000004e-06
aF5.000000000000003e-07
aF1.999999999999991e-06
aF5.000000000000003e-07
aF1.0000000000000004e-06
aF5.000000000000003e-07
aF2.4999999999999862e-06
aF1.0000000000000004e-06
aF1.0000000000000004e-06
aF5.000000000000003e-07
aF1.4999999999999956e-06
aF5.000000000000003e-07
aF1.0000000000000004e-06
aF5.000000000000003e-07
aF5.000000000000003e-07
aF5.000000000000003e-07
aF5.000000000000003e-07
aF1.0000000000000004e-06
aF1.0000000000000004e-06
aF1.0000000000000004e-06
aF1.0000000000000004e-06
aF1.4999999999999956e-06
aF1.0000000000000004e-06
aF1.4999999999999956e-06
aF1.4999999999999956e-06
aF1.999999999999991e-06
aF5.000000000000003e-07
aF1.0000000000000004e-06
aF1.4999999999999956e-06
aF1.999999999999991e-06
aF5.000000000000003e-07
aF1.0000000000000004e-06
aF1.0000000000000004e-06
aF1.0000000000000004e-06
aF1.4999999999999956e-06
aF1.4999999999999956e-06
aF1.999999999999991e-06
aF1.4999999999999956e-06
aF5.000000000000003e-07
aF1.4999999999999956e-06
aF1.0000000000000004e-06
aF5.000000000000003e-07
aF1.4999999999999956e-06
aF5.000000000000003e-07
aF1.999999999999991e-06
aF1.4999999999999956e-06
aF1.0000000000000004e-06
aF1.0000000000000004e-06
aF5.000000000000003e-07
aF1.0000000000000004e-06
aF1.0000000000000004e-06
aF1.0000000000000004e-06
aF5.000000000000003e-07
aF1.0000000000000004e-06
aF1.4999999999999956e-06
aF1.0000000000000004e-06
aF1.4999999999999956e-06
aF1.0000000000000004e-06
aF1.0000000000000004e-06
aF5.000000000000003e-07
aF1.4999999999999956e-06
aF1.4999999999999956e-06
aF5.000000000000003e-07
aF1.0000000000000004e-06
aF1.4999999999999956e-06
aF1.0000000000000004e-06
aF5.000000000000003e-07
aF1.4999999999999956e-06
aF1.0000000000000004e-06
aF1.4999999999999956e-06
aF5.000000000000003e-07
aF5.000000000000003e-07
aF1.0000000000000004e-06
aF5.000000000000003e-07
aF5.000000000000003e-07
aF1.0000000000000004e-06
aF1.4999999999999956e-06
aF1.0000000000000004e-06
aF1.0000000000000004e-06
aF1.4999999999999956e-06
aF5.000000000000003e-07
aF5.000000000000003e-07
aF1.0000000000000004e-06
aF1.0000000000000004e-06
aF1.0000000000000004e-06
aF1.999999999999991e-06
aF1.0000000000000004e-06
aF5.000000000000003e-07
aF5.000000000000003e-07
aF5.000000000000003e-07
aF2.4999999999999862e-06
aF5.000000000000003e-07
aF5.000000000000003e-07
aF1.4999999999999956e-06
aF1.0000000000000004e-06
aF2.4999999999999862e-06
aF1.0000000000000004e-06
aF5.000000000000003e-07
aF1.0000000000000004e-06
aF5.000000000000003e-07
aF1.0000000000000004e-06
aF5.000000000000003e-07
aF5.000000000000003e-07
aF1.0000000000000004e-06
aF1.4999999999999956e-06
aF5.000000000000003e-07
aF1.0000000000000004e-06
aF1.4999999999999956e-06
aF5.000000000000003e-07
aF1.0000000000000004e-06
aF1.0000000000000004e-06
aF5.000000000000003e-07
aF2.9999999999999814e-06
aF5.000000000000003e-07
aF1.0000000000000004e-06
aF1.4999999999999956e-06
aF1.0000000000000004e-06
aF1.4999999999999956e-06
aF1.0000000000000004e-06
aF1.0000000000000004e-06
aF1.0000000000000004e-06
aF1.0000000000000004e-06
aF1.0000000000000004e-06
aF1.4999999999999956e-06
aF5.000000000000003e-07
aF5.000000000000003e-07
aF1.4999999999999956e-06
aF1.0000000000000004e-06
aF1.0000000000000004e-06
aF5.000000000000003e-07
aF5.000000000000003e-07
aF1.0000000000000004e-06
aF1.0000000000000004e-06
aF1.0000000000000004e-06
aF1.0000000000000004e-06
aF5.000000000000003e-07
aF5.000000000000003e-07
aF2.9999999999999814e-06
aF1.0000000000000004e-06
aF1.0000000000000004e-06
aF1.0000000000000004e-06
aF5.000000000000003e-07
aF5.000000000000003e-07
aF5.000000000000003e-07
aF1.0000000000000004e-06
aF5.000000000000003e-07
aF1.4999999999999956e-06
aF1.0000000000000004e-06
aF1.0000000000000004e-06
aF5.000000000000003e-07
aF1.0000000000000004e-06
aF1.0000000000000004e-06
aF5.000000000000003e-07
aF1.0000000000000004e-06
aF1.999999999999991e-06
aF1.0000000000000004e-06
aF1.999999999999991e-06
aF2.4999999999999862e-06
aF1.999999999999991e-06
aF1.4999999999999956e-06
aF1.0000000000000004e-06
aF1.4999999999999956e-06
aF5.000000000000003e-07
aF1.999999999999991e-06
aF1.4999999999999956e-06
aF2.4999999999999862e-06
aF1.0000000000000004e-06
aF1.0000000000000004e-06
aF1.0000000000000004e-06
aF1.999999999999991e-06
aF1.4999999999999956e-06
aF2.4999999999999862e-06
aF5.000000000000003e-07
aF5.000000000000003e-07
aF1.4999999999999956e-06
aF1.0000000000000004e-06
aF1.4999999999999956e-06
aF5.000000000000003e-07
aF5.000000000000003e-07
aF1.4999999999999956e-06
aF5.000000000000003e-07
aF1.0000000000000004e-06
aF1.0000000000000004e-06
aF1.0000000000000004e-06
aF5.000000000000003e-07
aF1.0000000000000004e-06
aF1.0000000000000004e-06
aF5.000000000000003e-07
aF2.9999999999999814e-06
aF5.000000000000003e-07
aF1.0000000000000004e-06
aF1.0000000000000004e-06
aF1.4999999999999956e-06
aF5.000000000000003e-07
aF2.4999999999999862e-06
aF1.4999999999999956e-06
aF1.0000000000000004e-06
aF1.0000000000000004e-06
aF5.000000000000003e-07
aF1.4999999999999956e-06
aF1.0000000000000004e-06
aF1.4999999999999956e-06
aF1.0000000000000004e-06
aF1.4999999999999956e-06
aF1.4999999999999956e-06
aF1.999999999999991e-06
aF5.000000000000003e-07
aF1.0000000000000004e-06
aF1.0000000000000004e-06
aF1.0000000000000004e-06
aF1.0000000000000004e-06
aF1.0000000000000004e-06
aF1.4999999999999956e-06
aF1.0000000000000004e-06
aF1.0000000000000004e-06
aF1.4999999999999956e-06
aF1.4999999999999956e-06
aF1.4999999999999956e-06
aF1.999999999999991e-06
aF1.0000000000000004e-06
aF1.0000000000000004e-06
aF1.0000000000000004e-06
aF1.999999999999991e-06
aF5.000000000000003e-07
aF1.999999999999991e-06
aF5.000000000000003e-07
aF5.000000000000003e-07
aF1.0000000000000004e-06
aF5.000000000000003e-07
aF5.000000000000003e-07
aF5.000000000000003e-07
aF1.0000000000000004e-06
aF1.0000000000000004e-06
aF1.0000000000000004e-06
aF1.0000000000000004e-06
aF1.4999999999999956e-06
aF1.999999999999991e-06
aF5.000000000000003e-07
aF1.0000000000000004e-06
aF1.0000000000000004e-06
aF1.4999999999999956e-06
aF1.0000000000000004e-06
aF5.000000000000003e-07
aF1.999999999999991e-06
aF5.000000000000003e-07
aF5.000000000000003e-07
aF1.4999999999999956e-06
aF5.000000000000003e-07
aF5.000000000000003e-07
aF1.999999999999991e-06
aF1.4999999999999956e-06
aF5.000000000000003e-07
aF1.0000000000000004e-06
aF1.999999999999991e-06
aF5.000000000000003e-07
aF1.0000000000000004e-06
aF1.0000000000000004e-06
aF1.0000000000000004e-06
aF1.4999999999999956e-06
aF5.000000000000003e-07
aF5.000000000000003e-07
aF2.9999999999999814e-06
aF1.999999999999991e-06
aF1.4999999999999956e-06
aF5.000000000000003e-07
aF1.0000000000000004e-06
aF5.000000000000003e-07
aF5.000000000000003e-07
aF1.4999999999999956e-06
aF2.4999999999999862e-06
aF5.000000000000003e-07
aF2.4999999999999862e-06
aF5.000000000000003e-07
aF5.000000000000003e-07
aF1.4999999999999956e-06
aF5.000000000000003e-07
aF1.0000000000000004e-06
aF5.000000000000003e-07
aF1.999999999999991e-06
aF1.0000000000000004e-06
aF1.0000000000000004e-06
aF1.999999999999991e-06
aF1.999999999999991e-06
aF5.000000000000003e-07
aF1.4999999999999956e-06
aF1.4999999999999956e-06
aF1.4999999999999956e-06
aF1.999999999999991e-06
aF1.4999999999999956e-06
aF5.000000000000003e-07
aF1.0000000000000004e-06
aF5.000000000000003e-07
aF1.999999999999991e-06
aF5.000000000000003e-07
aF5.000000000000003e-07
aF1.0000000000000004e-06
aF1.0000000000000004e-06
aF5.000000000000003e-07
aF1.0000000000000004e-06
aF1.4999999999999956e-06
aF1.4999999999999956e-06
aF5.000000000000003e-07
aF5.000000000000003e-07
aF1.0000000000000004e-06
aF5.000000000000003e-07
aF1.4999999999999956e-06
aF5.000000000000003e-07
aF5.000000000000003e-07
aF1.4999999999999956e-06
aF1.4999999999999956e-06
aF1.4999999999999956e-06
aF1.0000000000000004e-06
aF5.000000000000003e-07
aF1.4999999999999956e-06
aF1.0000000000000004e-06
aF1.4999999999999956e-06
aF1.999999999999991e-06
aF1.0000000000000004e-06
aF1.4999999999999956e-06
aF5.000000000000003e-07
aF1.0000000000000004e-06
aF5.000000000000003e-07
aF5.000000000000003e-07
aF1.0000000000000004e-06
aF1.999999999999991e-06
aF5.000000000000003e-07
aF1.0000000000000004e-06
aF5.000000000000003e-07
aF5.000000000000003e-07
aF5.000000000000003e-07
aF1.0000000000000004e-06
aF5.000000000000003e-07
aF1.4999999999999956e-06
aF1.4999999999999956e-06
aF1.0000000000000004e-06
aF1.0000000000000004e-06
aF1.4999999999999956e-06
aF1.0000000000000004e-06
aF5.000000000000003e-07
aF5.000000000000003e-07
aF5.000000000000003e-07
aF5.000000000000003e-07
aF1.0000000000000004e-06
aF5.000000000000003e-07
aF1.0000000000000004e-06
aF1.0000000000000004e-06
aF1.0000000000000004e-06
aF1.4999999999999956e-06
aF1.4999999999999956e-06
aF1.999999999999991e-06
aF5.000000000000003e-07
aF5.000000000000003e-07
aF1.0000000000000004e-06
aF1.0000000000000004e-06
aF1.999999999999991e-06
aF1.0000000000000004e-06
aF5.000000000000003e-07
aF1.4999999999999956e-06
aF1.0000000000000004e-06
aF2.4999999999999862e-06
aF1.999999999999991e-06
aF1.0000000000000004e-06
aF5.000000000000003e-07
aF1.0000000000000004e-06
aF1.0000000000000004e-06
aF1.4999999999999956e-06
aF5.000000000000003e-07
aF1.4999999999999956e-06
aF1.0000000000000004e-06
aF1.0000000000000004e-06
aF1.0000000000000004e-06
aF5.000000000000003e-07
aF1.0000000000000004e-06
aF5.000000000000003e-07
aF1.0000000000000004e-06
aF1.999999999999991e-06
aF1.4999999999999956e-06
aF5.000000000000003e-07
aF1.4999999999999956e-06
aF1.4999999999999956e-06
aF5.000000000000003e-07
aF1.4999999999999956e-06
aF1.999999999999991e-06
aF5.000000000000003e-07
aF1.4999999999999956e-06
aF1.999999999999991e-06
aF1.4999999999999956e-06
aF1.0000000000000004e-06
aF1.0000000000000004e-06
aF1.0000000000000004e-06
aF1.4999999999999956e-06
aF1.0000000000000004e-06
aF1.999999999999991e-06
aF1.0000000000000004e-06
aF5.000000000000003e-07
aF2.4999999999999862e-06
aF1.0000000000000004e-06
aF1.0000000000000004e-06
aF1.0000000000000004e-06
aF1.0000000000000004e-06
aF5.000000000000003e-07
aF1.0000000000000004e-06
aF1.4999999999999956e-06
aF1.4999999999999956e-06
aF1.0000000000000004e-06
aF1.0000000000000004e-06
aF1.0000000000000004e-06
aF1.0000000000000004e-06
aF1.4999999999999956e-06
aF1.0000000000000004e-06
aF1.0000000000000004e-06
aF1.4999999999999956e-06
aF1.4999999999999956e-06
aF1.0000000000000004e-06
aF1.0000000000000004e-06
aF5.000000000000003e-07
aF1.999999999999991e-06
aF1.0000000000000004e-06
aF1.999999999999991e-06
aF1.0000000000000004e-06
aF1.4999999999999956e-06
aF5.000000000000003e-07
aF5.000000000000003e-07
aF5.000000000000003e-07
aF1.4999999999999956e-06
aF1.0000000000000004e-06
aF1.0000000000000004e-06
aF2.4999999999999862e-06
aF1.999999999999991e-06
aF1.0000000000000004e-06
aF5.000000000000003e-07
aF1.0000000000000004e-06
aF1.4999999999999956e-06
aF1.0000000000000004e-06
aF1.0000000000000004e-06
aF1.4999999999999956e-06
aF5.000000000000003e-07
aF5.000000000000003e-07
aF1.0000000000000004e-06
aF5.000000000000003e-07
aF1.0000000000000004e-06
aF5.000000000000003e-07
aF5.000000000000003e-07
aF1.999999999999991e-06
aF1.999999999999991e-06
aF1.4999999999999956e-06
aF5.000000000000003e-07
aF1.4999999999999956e-06
aF5.000000000000003e-07
aF5.000000000000003e-07
aF5.000000000000003e-07
aF5.000000000000003e-07
aF1.999999999999991e-06
aF1.0000000000000004e-06
aF1.0000000000000004e-06
aF1.0000000000000004e-06
aF1.0000000000000004e-06
aF1.0000000000000004e-06
aF5.000000000000003e-07
aF1.4999999999999956e-06
aF1.999999999999991e-06
aF5.000000000000003e-07
aF1.999999999999991e-06
aF1.999999999999991e-06
aF1.0000000000000004e-06
aF5.000000000000003e-07
aF5.000000000000003e-07
aF5.000000000000003e-07
aF1.4999999999999956e-06
aF1.4999999999999956e-06
aF5.000000000000003e-07
aF1.4999999999999956e-06
aF5.000000000000003e-07
aF5.000000000000003e-07
aF1.0000000000000004e-06
aF1.4999999999999956e-06
aF5.000000000000003e-07
aF5.000000000000003e-07
aF1.999999999999991e-06
aF1.0000000000000004e-06
aF5.000000000000003e-07
aF5.000000000000003e-07
aF5.000000000000003e-07
aF5.000000000000003e-07
aF5.000000000000003e-07
aF1.4999999999999956e-06
aF5.000000000000003e-07
aF2.4999999999999862e-06
aF5.000000000000003e-07
aF1.0000000000000004e-06
aF5.000000000000003e-07
aF5.000000000000003e-07
aF1.999999999999991e-06
aF2.4999999999999862e-06
aF2.4999999999999862e-06
aF1.4999999999999956e-06
aF1.4999999999999956e-06
aF1.4999999999999956e-06
aF1.4999999999999956e-06
aF5.000000000000003e-07
aF1.4999999999999956e-06
aF1.0000000000000004e-06
aF1.4999999999999956e-06
aF1.4999999999999956e-06
aF1.0000000000000004e-06
aF1.4999999999999956e-06
aF5.000000000000003e-07
aF1.4999999999999956e-06
aF5.000000000000003e-07
aF1.0000000000000004e-06
aF5.000000000000003e-07
aF1.0000000000000004e-06
aF1.4999999999999956e-06
aF1.999999999999991e-06
aF1.0000000000000004e-06
aF1.4999999999999956e-06
aF1.0000000000000004e-06
aF1.0000000000000004e-06
aF1.0000000000000004e-06
aF1.999999999999991e-06
aF5.000000000000003e-07
aF5.000000000000003e-07
aF5.000000000000003e-07
a.