(lp0
F5.000000000000039e-07
aF5.000000000000039e-07
aF5.000000000000039e-07
aF5.000000000000039e-07
aF5.000000000000039e-07
aF5.000000000000039e-07
aF5.000000000000039e-07
aF5.000000000000039e-07
aF5.000000000000039e-07
aF5.000000000000039e-07
aF5.000000000000039e-07
aF5.000000000000039e-07
aF5.000000000000039e-07
aF5.000000000000039e-07
aF5.000000000000039e-07
aF5.000000000000039e-07
aF5.000000000000039e-07
aF5.000000000000039e-07
aF5.000000000000039e-07
aF5.000000000000039e-07
a.