(lp0
I0
aF1.0000000000000002e-10
aF2.0000000000000003e-10
aF3.0000000000000005e-10
aF4.0000000000000007e-10
aF5.000000000000001e-10
aF6.000000000000002e-10
aF7.000000000000003e-10
aF8.000000000000003e-10
aF9.000000000000004e-10
aF1.0000000000000005e-09
aF1.1000000000000005e-09
aF1.2000000000000006e-09
aF1.3000000000000007e-09
aF1.4000000000000007e-09
aF1.5000000000000008e-09
aF1.6000000000000009e-09
aF1.700000000000001e-09
aF1.800000000000001e-09
aF1.900000000000001e-09
aF2.000000000000001e-09
aF2.100000000000001e-09
aF2.200000000000001e-09
aF2.300000000000001e-09
aF2.4000000000000012e-09
aF2.5000000000000013e-09
aF2.6000000000000014e-09
aF2.7000000000000014e-09
aF2.8000000000000015e-09
aF2.9000000000000016e-09
aF3.0000000000000016e-09
aF3.1000000000000017e-09
aF3.2000000000000018e-09
aF3.300000000000002e-09
aF3.400000000000002e-09
aF3.500000000000002e-09
aF3.600000000000002e-09
aF3.700000000000002e-09
aF3.800000000000002e-09
aF3.900000000000002e-09
aF4.000000000000002e-09
aF4.100000000000002e-09
aF4.200000000000002e-09
aF4.300000000000002e-09
aF4.400000000000002e-09
aF4.500000000000002e-09
aF4.600000000000002e-09
aF4.700000000000002e-09
aF4.8000000000000024e-09
aF4.9000000000000025e-09
aF5.0000000000000026e-09
aF5.100000000000003e-09
aF5.200000000000003e-09
aF5.300000000000003e-09
aF5.400000000000003e-09
aF5.500000000000003e-09
aF5.600000000000003e-09
aF5.700000000000003e-09
aF5.800000000000003e-09
aF5.900000000000003e-09
aF6.000000000000003e-09
aF6.100000000000003e-09
aF6.200000000000003e-09
aF6.3000000000000035e-09
aF6.4000000000000035e-09
aF6.500000000000004e-09
aF6.600000000000004e-09
aF6.700000000000004e-09
aF6.800000000000004e-09
aF6.900000000000004e-09
aF7.000000000000004e-09
aF7.100000000000004e-09
aF7.200000000000004e-09
aF7.300000000000004e-09
aF7.400000000000004e-09
aF7.500000000000004e-09
aF7.600000000000004e-09
aF7.700000000000003e-09
aF7.800000000000002e-09
aF7.900000000000001e-09
aF8e-09
aF8.1e-09
aF8.199999999999999e-09
aF8.299999999999998e-09
aF8.399999999999997e-09
aF8.499999999999997e-09
aF8.599999999999996e-09
aF8.699999999999995e-09
aF8.799999999999994e-09
aF8.899999999999994e-09
aF8.999999999999993e-09
aF9.099999999999992e-09
aF9.199999999999991e-09
aF9.29999999999999e-09
aF9.39999999999999e-09
aF9.499999999999989e-09
aF9.599999999999988e-09
aF9.699999999999988e-09
aF9.799999999999987e-09
aF9.899999999999986e-09
aF9.999999999999985e-09
aF1.0099999999999985e-08
aF1.0199999999999984e-08
aF1.0299999999999983e-08
aF1.0399999999999982e-08
aF1.0499999999999982e-08
aF1.059999999999998e-08
aF1.069999999999998e-08
aF1.079999999999998e-08
aF1.0899999999999978e-08
aF1.0999999999999978e-08
aF1.1099999999999977e-08
aF1.1199999999999976e-08
aF1.1299999999999975e-08
aF1.1399999999999975e-08
aF1.1499999999999974e-08
aF1.1599999999999973e-08
aF1.1699999999999972e-08
aF1.1799999999999972e-08
aF1.1899999999999971e-08
aF1.199999999999997e-08
aF1.209999999999997e-08
aF1.2199999999999969e-08
aF1.2299999999999968e-08
aF1.2399999999999967e-08
aF1.2499999999999966e-08
aF1.2599999999999966e-08
aF1.2699999999999965e-08
aF1.2799999999999964e-08
aF1.2899999999999963e-08
aF1.2999999999999963e-08
aF1.3099999999999962e-08
aF1.3199999999999961e-08
aF1.329999999999996e-08
aF1.339999999999996e-08
aF1.3499999999999959e-08
aF1.3599999999999958e-08
aF1.3699999999999957e-08
aF1.3799999999999956e-08
aF1.3899999999999956e-08
aF1.3999999999999955e-08
aF1.4099999999999954e-08
aF1.4199999999999953e-08
aF1.4299999999999953e-08
aF1.4399999999999952e-08
aF1.4499999999999951e-08
aF1.459999999999995e-08
aF1.469999999999995e-08
aF1.4799999999999949e-08
aF1.4899999999999948e-08
aF1.499999999999995e-08
aF1.509999999999995e-08
aF1.519999999999995e-08
aF1.5299999999999952e-08
aF1.5399999999999953e-08
aF1.5499999999999954e-08
aF1.5599999999999954e-08
aF1.5699999999999955e-08
aF1.5799999999999956e-08
aF1.5899999999999957e-08
aF1.5999999999999958e-08
aF1.609999999999996e-08
aF1.619999999999996e-08
aF1.629999999999996e-08
aF1.639999999999996e-08
aF1.6499999999999962e-08
aF1.6599999999999963e-08
aF1.6699999999999964e-08
aF1.6799999999999965e-08
aF1.6899999999999966e-08
aF1.6999999999999967e-08
aF1.7099999999999968e-08
aF1.719999999999997e-08
aF1.729999999999997e-08
aF1.739999999999997e-08
aF1.749999999999997e-08
aF1.7599999999999972e-08
aF1.7699999999999973e-08
aF1.7799999999999974e-08
aF1.7899999999999975e-08
aF1.7999999999999976e-08
aF1.8099999999999977e-08
aF1.8199999999999978e-08
aF1.829999999999998e-08
aF1.839999999999998e-08
aF1.849999999999998e-08
aF1.859999999999998e-08
aF1.8699999999999982e-08
aF1.8799999999999983e-08
aF1.8899999999999984e-08
aF1.8999999999999985e-08
aF1.9099999999999986e-08
aF1.9199999999999987e-08
aF1.9299999999999988e-08
aF1.939999999999999e-08
aF1.949999999999999e-08
aF1.959999999999999e-08
aF1.969999999999999e-08
aF1.9799999999999992e-08
aF1.9899999999999993e-08
aF1.9999999999999994e-08
aF2.0099999999999995e-08
aF2.0199999999999996e-08
aF2.0299999999999996e-08
aF2.0399999999999997e-08
aF2.0499999999999998e-08
aF2.06e-08
aF2.07e-08
aF2.08e-08
aF2.0900000000000002e-08
aF2.1000000000000003e-08
aF2.1100000000000004e-08
aF2.1200000000000005e-08
aF2.1300000000000005e-08
aF2.1400000000000006e-08
aF2.1500000000000007e-08
aF2.1600000000000008e-08
aF2.170000000000001e-08
aF2.180000000000001e-08
aF2.190000000000001e-08
aF2.2000000000000012e-08
aF2.2100000000000013e-08
aF2.2200000000000014e-08
aF2.2300000000000014e-08
aF2.2400000000000015e-08
aF2.2500000000000016e-08
aF2.2600000000000017e-08
aF2.2700000000000018e-08
aF2.280000000000002e-08
aF2.290000000000002e-08
aF2.300000000000002e-08
aF2.310000000000002e-08
aF2.3200000000000022e-08
aF2.3300000000000023e-08
aF2.3400000000000024e-08
aF2.3500000000000025e-08
aF2.3600000000000026e-08
aF2.3700000000000027e-08
aF2.3800000000000028e-08
aF2.390000000000003e-08
aF2.400000000000003e-08
aF2.410000000000003e-08
aF2.420000000000003e-08
aF2.4300000000000032e-08
aF2.4400000000000033e-08
aF2.4500000000000034e-08
aF2.4600000000000035e-08
aF2.4700000000000036e-08
aF2.4800000000000037e-08
aF2.4900000000000038e-08
aF2.500000000000004e-08
aF2.510000000000004e-08
aF2.520000000000004e-08
aF2.530000000000004e-08
aF2.5400000000000042e-08
aF2.5500000000000043e-08
aF2.5600000000000044e-08
aF2.5700000000000045e-08
aF2.5800000000000046e-08
aF2.5900000000000047e-08
aF2.6000000000000048e-08
aF2.610000000000005e-08
aF2.620000000000005e-08
aF2.630000000000005e-08
aF2.640000000000005e-08
aF2.6500000000000052e-08
aF2.6600000000000053e-08
aF2.6700000000000054e-08
aF2.6800000000000055e-08
aF2.6900000000000056e-08
aF2.7000000000000056e-08
aF2.7100000000000057e-08
aF2.7200000000000058e-08
aF2.730000000000006e-08
aF2.740000000000006e-08
aF2.750000000000006e-08
aF2.7600000000000062e-08
aF2.7700000000000063e-08
aF2.7800000000000064e-08
aF2.7900000000000065e-08
aF2.8000000000000065e-08
aF2.8100000000000066e-08
aF2.8200000000000067e-08
aF2.8300000000000068e-08
aF2.840000000000007e-08
aF2.850000000000007e-08
aF2.860000000000007e-08
aF2.8700000000000072e-08
aF2.8800000000000073e-08
aF2.8900000000000073e-08
aF2.9000000000000074e-08
aF2.9100000000000075e-08
aF2.9200000000000076e-08
aF2.9300000000000077e-08
aF2.9400000000000078e-08
aF2.950000000000008e-08
aF2.960000000000008e-08
aF2.970000000000008e-08
aF2.980000000000008e-08
aF2.990000000000008e-08
aF3.0000000000000083e-08
aF3.0100000000000084e-08
aF3.0200000000000085e-08
aF3.0300000000000086e-08
aF3.040000000000009e-08
aF3.050000000000009e-08
aF3.060000000000009e-08
aF3.070000000000009e-08
aF3.080000000000009e-08
aF3.090000000000009e-08
aF3.100000000000009e-08
aF3.110000000000009e-08
aF3.1200000000000094e-08
aF3.1300000000000095e-08
aF3.1400000000000096e-08
aF3.15000000000001e-08
aF3.16000000000001e-08
aF3.17000000000001e-08
aF3.18000000000001e-08
aF3.19000000000001e-08
aF3.20000000000001e-08
aF3.21000000000001e-08
aF3.22000000000001e-08
aF3.2300000000000104e-08
aF3.2400000000000105e-08
aF3.2500000000000106e-08
aF3.2600000000000107e-08
aF3.270000000000011e-08
aF3.280000000000011e-08
aF3.290000000000011e-08
aF3.300000000000011e-08
aF3.310000000000011e-08
aF3.320000000000011e-08
aF3.330000000000011e-08
aF3.3400000000000114e-08
aF3.3500000000000115e-08
aF3.3600000000000116e-08
aF3.3700000000000116e-08
aF3.380000000000012e-08
aF3.390000000000012e-08
aF3.400000000000012e-08
aF3.410000000000012e-08
aF3.420000000000012e-08
aF3.430000000000012e-08
aF3.440000000000012e-08
aF3.4500000000000124e-08
aF3.4600000000000125e-08
aF3.4700000000000125e-08
aF3.4800000000000126e-08
aF3.490000000000013e-08
aF3.500000000000013e-08
aF3.510000000000013e-08
aF3.520000000000013e-08
aF3.530000000000013e-08
aF3.540000000000013e-08
aF3.550000000000013e-08
aF3.5600000000000133e-08
aF3.5700000000000134e-08
aF3.5800000000000135e-08
aF3.5900000000000136e-08
aF3.600000000000014e-08
aF3.610000000000014e-08
aF3.620000000000014e-08
aF3.630000000000014e-08
aF3.640000000000014e-08
aF3.650000000000014e-08
aF3.660000000000014e-08
aF3.6700000000000143e-08
aF3.6800000000000144e-08
aF3.6900000000000145e-08
aF3.7000000000000146e-08
aF3.710000000000015e-08
aF3.720000000000015e-08
aF3.730000000000015e-08
aF3.740000000000015e-08
aF3.750000000000015e-08
aF3.760000000000015e-08
aF3.770000000000015e-08
aF3.780000000000015e-08
aF3.7900000000000154e-08
aF3.8000000000000155e-08
aF3.8100000000000156e-08
aF3.820000000000016e-08
aF3.830000000000016e-08
aF3.840000000000016e-08
aF3.850000000000016e-08
aF3.860000000000016e-08
aF3.870000000000016e-08
aF3.880000000000016e-08
aF3.890000000000016e-08
aF3.9000000000000164e-08
aF3.9100000000000165e-08
aF3.9200000000000166e-08
aF3.9300000000000167e-08
aF3.940000000000017e-08
aF3.950000000000017e-08
aF3.960000000000017e-08
aF3.970000000000017e-08
aF3.980000000000017e-08
aF3.990000000000017e-08
aF4.000000000000017e-08
aF4.0100000000000174e-08
aF4.0200000000000175e-08
aF4.0300000000000176e-08
aF4.0400000000000176e-08
aF4.050000000000018e-08
aF4.060000000000018e-08
aF4.070000000000018e-08
aF4.080000000000018e-08
aF4.090000000000018e-08
aF4.100000000000018e-08
aF4.110000000000018e-08
aF4.1200000000000184e-08
aF4.1300000000000185e-08
aF4.1400000000000185e-08
aF4.1500000000000186e-08
aF4.160000000000019e-08
aF4.170000000000019e-08
aF4.180000000000019e-08
aF4.190000000000019e-08
aF4.200000000000019e-08
aF4.210000000000019e-08
aF4.220000000000019e-08
aF4.2300000000000193e-08
aF4.2400000000000194e-08
aF4.2500000000000195e-08
aF4.2600000000000196e-08
aF4.27000000000002e-08
aF4.28000000000002e-08
aF4.29000000000002e-08
aF4.30000000000002e-08
aF4.31000000000002e-08
aF4.32000000000002e-08
aF4.33000000000002e-08
aF4.3400000000000203e-08
aF4.3500000000000204e-08
aF4.3600000000000205e-08
aF4.3700000000000206e-08
aF4.380000000000021e-08
aF4.390000000000021e-08
aF4.400000000000021e-08
aF4.410000000000021e-08
aF4.420000000000021e-08
aF4.430000000000021e-08
aF4.440000000000021e-08
aF4.450000000000021e-08
aF4.4600000000000214e-08
aF4.4700000000000215e-08
aF4.4800000000000216e-08
aF4.490000000000022e-08
aF4.500000000000022e-08
aF4.510000000000022e-08
aF4.520000000000022e-08
aF4.530000000000022e-08
aF4.540000000000022e-08
aF4.550000000000022e-08
aF4.560000000000022e-08
aF4.5700000000000224e-08
aF4.5800000000000225e-08
aF4.5900000000000226e-08
aF4.6000000000000227e-08
aF4.610000000000023e-08
aF4.620000000000023e-08
aF4.630000000000023e-08
aF4.640000000000023e-08
aF4.650000000000023e-08
aF4.660000000000023e-08
aF4.670000000000023e-08
aF4.6800000000000234e-08
aF4.6900000000000235e-08
aF4.7000000000000236e-08
aF4.7100000000000236e-08
aF4.720000000000024e-08
aF4.730000000000024e-08
aF4.740000000000024e-08
aF4.750000000000024e-08
aF4.760000000000024e-08
aF4.770000000000024e-08
aF4.780000000000024e-08
aF4.7900000000000244e-08
aF4.8000000000000245e-08
aF4.8100000000000245e-08
aF4.8200000000000246e-08
aF4.830000000000025e-08
aF4.840000000000025e-08
aF4.850000000000025e-08
aF4.860000000000025e-08
aF4.870000000000025e-08
aF4.880000000000025e-08
aF4.890000000000025e-08
aF4.9000000000000253e-08
aF4.9100000000000254e-08
aF4.9200000000000255e-08
aF4.9300000000000256e-08
aF4.940000000000026e-08
aF4.950000000000026e-08
aF4.960000000000026e-08
aF4.970000000000026e-08
aF4.980000000000026e-08
aF4.990000000000026e-08
aF5.000000000000026e-08
aF5.0100000000000263e-08
aF5.0200000000000264e-08
aF5.0300000000000265e-08
aF5.0400000000000266e-08
aF5.050000000000027e-08
aF5.060000000000027e-08
aF5.070000000000027e-08
aF5.080000000000027e-08
aF5.090000000000027e-08
aF5.100000000000027e-08
aF5.110000000000027e-08
aF5.120000000000027e-08
aF5.1300000000000274e-08
aF5.1400000000000275e-08
aF5.1500000000000276e-08
aF5.160000000000028e-08
aF5.170000000000028e-08
aF5.180000000000028e-08
aF5.190000000000028e-08
aF5.200000000000028e-08
aF5.210000000000028e-08
aF5.220000000000028e-08
aF5.230000000000028e-08
aF5.2400000000000284e-08
aF5.2500000000000285e-08
aF5.2600000000000286e-08
aF5.2700000000000287e-08
aF5.280000000000029e-08
aF5.290000000000029e-08
aF5.300000000000029e-08
aF5.310000000000029e-08
aF5.320000000000029e-08
aF5.330000000000029e-08
aF5.340000000000029e-08
aF5.3500000000000294e-08
aF5.3600000000000295e-08
aF5.3700000000000296e-08
aF5.3800000000000296e-08
aF5.39000000000003e-08
aF5.40000000000003e-08
aF5.41000000000003e-08
aF5.42000000000003e-08
aF5.43000000000003e-08
aF5.44000000000003e-08
aF5.45000000000003e-08
aF5.4600000000000304e-08
aF5.4700000000000305e-08
aF5.4800000000000305e-08
aF5.4900000000000306e-08
aF5.500000000000031e-08
aF5.510000000000031e-08
aF5.520000000000031e-08
aF5.530000000000031e-08
aF5.540000000000031e-08
aF5.550000000000031e-08
aF5.560000000000031e-08
aF5.5700000000000313e-08
aF5.5800000000000314e-08
aF5.5900000000000315e-08
aF5.6000000000000316e-08
aF5.610000000000032e-08
aF5.620000000000032e-08
aF5.630000000000032e-08
aF5.640000000000032e-08
aF5.650000000000032e-08
aF5.660000000000032e-08
aF5.670000000000032e-08
aF5.6800000000000323e-08
aF5.6900000000000324e-08
aF5.7000000000000325e-08
aF5.7100000000000326e-08
aF5.720000000000033e-08
aF5.730000000000033e-08
aF5.740000000000033e-08
aF5.750000000000033e-08
aF5.760000000000033e-08
aF5.770000000000033e-08
aF5.780000000000033e-08
aF5.790000000000033e-08
aF5.8000000000000334e-08
aF5.8100000000000335e-08
aF5.8200000000000336e-08
aF5.830000000000034e-08
aF5.840000000000034e-08
aF5.850000000000034e-08
aF5.860000000000034e-08
aF5.870000000000034e-08
aF5.880000000000034e-08
aF5.890000000000034e-08
aF5.900000000000034e-08
aF5.9100000000000344e-08
aF5.9200000000000345e-08
aF5.9300000000000346e-08
aF5.9400000000000347e-08
aF5.950000000000035e-08
a.