(lp0
I0
aF1e-09
aF2e-09
aF3.0000000000000004e-09
aF4e-09
aF5e-09
aF6e-09
aF7e-09
aF8e-09
aF9.000000000000001e-09
aF1.0000000000000002e-08
aF1.1000000000000003e-08
aF1.2000000000000003e-08
aF1.3000000000000004e-08
aF1.4000000000000005e-08
aF1.5000000000000005e-08
aF1.6000000000000004e-08
aF1.7000000000000003e-08
aF1.8000000000000002e-08
aF1.9e-08
aF2e-08
aF2.1e-08
aF2.2e-08
aF2.2999999999999998e-08
aF2.3999999999999997e-08
aF2.4999999999999996e-08
aF2.5999999999999995e-08
aF2.6999999999999994e-08
aF2.7999999999999993e-08
aF2.8999999999999992e-08
aF2.999999999999999e-08
aF3.099999999999999e-08
aF3.1999999999999995e-08
aF3.3e-08
aF3.4e-08
aF3.5e-08
aF3.6000000000000005e-08
aF3.700000000000001e-08
aF3.800000000000001e-08
aF3.900000000000001e-08
aF4.0000000000000014e-08
aF4.1000000000000016e-08
aF4.200000000000002e-08
aF4.300000000000002e-08
aF4.4000000000000023e-08
aF4.5000000000000026e-08
aF4.600000000000003e-08
aF4.700000000000003e-08
aF4.800000000000003e-08
aF4.9000000000000035e-08
aF5.000000000000004e-08
aF5.100000000000004e-08
aF5.200000000000004e-08
aF5.3000000000000044e-08
aF5.400000000000005e-08
aF5.500000000000005e-08
aF5.600000000000005e-08
aF5.7000000000000054e-08
aF5.8000000000000056e-08
aF5.900000000000006e-08
aF6.000000000000006e-08
aF6.100000000000006e-08
aF6.200000000000005e-08
aF6.300000000000005e-08
aF6.400000000000004e-08
aF6.500000000000004e-08
aF6.600000000000004e-08
aF6.700000000000003e-08
aF6.800000000000003e-08
aF6.900000000000002e-08
aF7.000000000000002e-08
aF7.100000000000001e-08
aF7.200000000000001e-08
aF7.3e-08
aF7.4e-08
aF7.5e-08
aF7.599999999999999e-08
aF7.699999999999999e-08
aF7.799999999999998e-08
aF7.899999999999998e-08
aF7.999999999999998e-08
aF8.099999999999997e-08
aF8.199999999999997e-08
aF8.299999999999996e-08
aF8.399999999999996e-08
aF8.499999999999995e-08
aF8.599999999999995e-08
aF8.699999999999995e-08
aF8.799999999999994e-08
aF8.899999999999994e-08
aF8.999999999999993e-08
aF9.099999999999993e-08
aF9.199999999999992e-08
aF9.299999999999992e-08
aF9.399999999999992e-08
aF9.499999999999991e-08
aF9.599999999999991e-08
aF9.69999999999999e-08
aF9.79999999999999e-08
aF9.89999999999999e-08
aF9.999999999999989e-08
aF1.0099999999999989e-07
aF1.0199999999999988e-07
aF1.0299999999999988e-07
aF1.0399999999999987e-07
aF1.0499999999999987e-07
aF1.0599999999999986e-07
aF1.0699999999999986e-07
aF1.0799999999999986e-07
aF1.0899999999999985e-07
aF1.0999999999999985e-07
aF1.1099999999999984e-07
aF1.1199999999999984e-07
aF1.1299999999999983e-07
aF1.1399999999999983e-07
aF1.1499999999999983e-07
aF1.1599999999999982e-07
aF1.1699999999999982e-07
aF1.1799999999999981e-07
aF1.1899999999999981e-07
aF1.199999999999998e-07
aF1.209999999999998e-07
aF1.219999999999998e-07
aF1.229999999999998e-07
aF1.239999999999998e-07
aF1.2499999999999978e-07
aF1.2599999999999978e-07
aF1.2699999999999977e-07
aF1.2799999999999977e-07
aF1.2899999999999977e-07
aF1.2999999999999976e-07
aF1.3099999999999976e-07
aF1.3199999999999975e-07
aF1.3299999999999975e-07
aF1.3399999999999974e-07
aF1.3499999999999974e-07
aF1.3599999999999974e-07
aF1.3699999999999973e-07
aF1.3799999999999973e-07
aF1.3899999999999972e-07
aF1.3999999999999972e-07
aF1.4099999999999971e-07
aF1.419999999999997e-07
aF1.429999999999997e-07
aF1.439999999999997e-07
aF1.449999999999997e-07
aF1.459999999999997e-07
aF1.469999999999997e-07
aF1.4799999999999968e-07
aF1.4899999999999968e-07
aF1.4999999999999968e-07
aF1.5099999999999967e-07
aF1.5199999999999967e-07
aF1.5299999999999966e-07
aF1.5399999999999966e-07
aF1.5499999999999965e-07
aF1.5599999999999965e-07
aF1.5699999999999965e-07
aF1.5799999999999964e-07
aF1.5899999999999964e-07
aF1.5999999999999963e-07
aF1.6099999999999963e-07
aF1.6199999999999962e-07
aF1.6299999999999962e-07
aF1.6399999999999962e-07
aF1.649999999999996e-07
aF1.659999999999996e-07
aF1.669999999999996e-07
aF1.679999999999996e-07
aF1.689999999999996e-07
aF1.699999999999996e-07
aF1.7099999999999959e-07
aF1.7199999999999958e-07
aF1.7299999999999958e-07
aF1.7399999999999957e-07
aF1.7499999999999957e-07
aF1.7599999999999956e-07
aF1.7699999999999956e-07
aF1.7799999999999956e-07
aF1.7899999999999955e-07
aF1.7999999999999955e-07
aF1.8099999999999954e-07
aF1.8199999999999954e-07
aF1.8299999999999953e-07
aF1.8399999999999953e-07
aF1.8499999999999953e-07
aF1.8599999999999952e-07
aF1.8699999999999952e-07
aF1.879999999999995e-07
aF1.889999999999995e-07
aF1.899999999999995e-07
aF1.909999999999995e-07
aF1.919999999999995e-07
aF1.929999999999995e-07
aF1.939999999999995e-07
aF1.9499999999999948e-07
aF1.9599999999999948e-07
aF1.9699999999999947e-07
aF1.9799999999999947e-07
aF1.9899999999999947e-07
aF1.9999999999999946e-07
aF2.0099999999999946e-07
aF2.0199999999999945e-07
aF2.0299999999999945e-07
aF2.0399999999999944e-07
aF2.0499999999999944e-07
aF2.0599999999999944e-07
aF2.0699999999999943e-07
aF2.0799999999999943e-07
aF2.0899999999999942e-07
aF2.0999999999999942e-07
aF2.1099999999999941e-07
aF2.119999999999994e-07
aF2.129999999999994e-07
aF2.139999999999994e-07
aF2.149999999999994e-07
aF2.159999999999994e-07
aF2.169999999999994e-07
aF2.1799999999999938e-07
aF2.1899999999999938e-07
aF2.1999999999999938e-07
aF2.2099999999999937e-07
aF2.2199999999999937e-07
aF2.2299999999999936e-07
aF2.2399999999999936e-07
aF2.2499999999999935e-07
aF2.2599999999999935e-07
aF2.2699999999999935e-07
aF2.2799999999999934e-07
aF2.2899999999999934e-07
aF2.2999999999999933e-07
aF2.3099999999999933e-07
aF2.3199999999999932e-07
aF2.3299999999999932e-07
aF2.3399999999999932e-07
aF2.349999999999993e-07
aF2.359999999999993e-07
aF2.369999999999993e-07
aF2.379999999999993e-07
aF2.389999999999993e-07
aF2.3999999999999934e-07
aF2.4099999999999937e-07
aF2.419999999999994e-07
aF2.429999999999994e-07
aF2.4399999999999943e-07
aF2.4499999999999945e-07
aF2.459999999999995e-07
aF2.469999999999995e-07
aF2.479999999999995e-07
aF2.4899999999999954e-07
aF2.4999999999999957e-07
aF2.509999999999996e-07
aF2.519999999999996e-07
aF2.5299999999999963e-07
aF2.5399999999999965e-07
aF2.549999999999997e-07
aF2.559999999999997e-07
aF2.569999999999997e-07
aF2.5799999999999974e-07
aF2.5899999999999976e-07
aF2.599999999999998e-07
aF2.609999999999998e-07
aF2.6199999999999983e-07
aF2.6299999999999985e-07
aF2.639999999999999e-07
aF2.649999999999999e-07
aF2.659999999999999e-07
aF2.6699999999999994e-07
aF2.6799999999999996e-07
aF2.69e-07
aF2.7e-07
aF2.7100000000000003e-07
aF2.7200000000000005e-07
aF2.730000000000001e-07
aF2.740000000000001e-07
aF2.750000000000001e-07
aF2.7600000000000014e-07
aF2.7700000000000016e-07
aF2.780000000000002e-07
aF2.790000000000002e-07
aF2.8000000000000023e-07
aF2.8100000000000025e-07
aF2.820000000000003e-07
aF2.830000000000003e-07
aF2.840000000000003e-07
aF2.8500000000000034e-07
aF2.8600000000000036e-07
aF2.870000000000004e-07
aF2.880000000000004e-07
aF2.8900000000000043e-07
aF2.9000000000000045e-07
aF2.910000000000005e-07
aF2.920000000000005e-07
aF2.930000000000005e-07
aF2.9400000000000054e-07
aF2.9500000000000056e-07
aF2.960000000000006e-07
aF2.970000000000006e-07
aF2.9800000000000063e-07
aF2.9900000000000065e-07
aF3.000000000000007e-07
aF3.010000000000007e-07
aF3.020000000000007e-07
aF3.0300000000000074e-07
aF3.0400000000000076e-07
aF3.050000000000008e-07
aF3.060000000000008e-07
aF3.0700000000000083e-07
aF3.0800000000000085e-07
aF3.090000000000009e-07
aF3.100000000000009e-07
aF3.110000000000009e-07
aF3.1200000000000094e-07
aF3.1300000000000096e-07
aF3.14000000000001e-07
aF3.15000000000001e-07
aF3.1600000000000103e-07
aF3.1700000000000105e-07
aF3.180000000000011e-07
aF3.190000000000011e-07
aF3.200000000000011e-07
aF3.2100000000000114e-07
aF3.2200000000000116e-07
aF3.230000000000012e-07
aF3.240000000000012e-07
aF3.2500000000000123e-07
aF3.2600000000000125e-07
aF3.270000000000013e-07
aF3.280000000000013e-07
aF3.290000000000013e-07
aF3.3000000000000134e-07
aF3.3100000000000136e-07
aF3.320000000000014e-07
aF3.330000000000014e-07
aF3.3400000000000143e-07
aF3.3500000000000145e-07
aF3.3600000000000147e-07
aF3.370000000000015e-07
aF3.380000000000015e-07
aF3.3900000000000154e-07
aF3.4000000000000156e-07
aF3.410000000000016e-07
aF3.420000000000016e-07
aF3.4300000000000163e-07
aF3.4400000000000165e-07
aF3.4500000000000167e-07
aF3.460000000000017e-07
aF3.470000000000017e-07
aF3.4800000000000174e-07
aF3.4900000000000176e-07
aF3.500000000000018e-07
aF3.510000000000018e-07
aF3.5200000000000183e-07
aF3.5300000000000185e-07
aF3.5400000000000187e-07
aF3.550000000000019e-07
aF3.560000000000019e-07
aF3.5700000000000194e-07
aF3.5800000000000196e-07
aF3.59000000000002e-07
aF3.60000000000002e-07
aF3.6100000000000203e-07
aF3.6200000000000205e-07
aF3.6300000000000207e-07
aF3.640000000000021e-07
aF3.650000000000021e-07
aF3.6600000000000214e-07
aF3.6700000000000216e-07
aF3.680000000000022e-07
aF3.690000000000022e-07
aF3.7000000000000223e-07
aF3.7100000000000225e-07
aF3.7200000000000227e-07
aF3.730000000000023e-07
aF3.740000000000023e-07
aF3.7500000000000234e-07
aF3.7600000000000236e-07
aF3.770000000000024e-07
aF3.780000000000024e-07
aF3.7900000000000243e-07
aF3.8000000000000245e-07
aF3.8100000000000247e-07
aF3.820000000000025e-07
aF3.830000000000025e-07
aF3.8400000000000254e-07
aF3.8500000000000256e-07
aF3.860000000000026e-07
aF3.870000000000026e-07
aF3.8800000000000263e-07
aF3.8900000000000265e-07
aF3.9000000000000267e-07
aF3.910000000000027e-07
aF3.920000000000027e-07
aF3.9300000000000274e-07
aF3.9400000000000276e-07
aF3.950000000000028e-07
aF3.960000000000028e-07
aF3.9700000000000283e-07
aF3.9800000000000285e-07
aF3.9900000000000287e-07
aF4.000000000000029e-07
aF4.010000000000029e-07
aF4.0200000000000294e-07
aF4.0300000000000296e-07
aF4.04000000000003e-07
aF4.05000000000003e-07
aF4.0600000000000303e-07
aF4.0700000000000305e-07
aF4.0800000000000307e-07
aF4.090000000000031e-07
aF4.100000000000031e-07
aF4.1100000000000314e-07
aF4.1200000000000316e-07
aF4.130000000000032e-07
aF4.140000000000032e-07
aF4.150000000000032e-07
aF4.1600000000000325e-07
aF4.1700000000000327e-07
aF4.180000000000033e-07
aF4.190000000000033e-07
aF4.2000000000000334e-07
aF4.2100000000000336e-07
aF4.220000000000034e-07
aF4.230000000000034e-07
aF4.240000000000034e-07
aF4.2500000000000345e-07
aF4.2600000000000347e-07
aF4.270000000000035e-07
aF4.280000000000035e-07
aF4.2900000000000354e-07
aF4.3000000000000356e-07
aF4.310000000000036e-07
aF4.320000000000036e-07
aF4.330000000000036e-07
aF4.3400000000000365e-07
aF4.3500000000000367e-07
aF4.360000000000037e-07
aF4.370000000000037e-07
aF4.3800000000000374e-07
aF4.3900000000000376e-07
aF4.400000000000038e-07
aF4.410000000000038e-07
aF4.420000000000038e-07
aF4.4300000000000385e-07
aF4.4400000000000387e-07
aF4.450000000000039e-07
aF4.460000000000039e-07
aF4.4700000000000394e-07
aF4.4800000000000396e-07
aF4.49000000000004e-07
aF4.50000000000004e-07
aF4.51000000000004e-07
aF4.5200000000000405e-07
aF4.5300000000000407e-07
aF4.540000000000041e-07
aF4.550000000000041e-07
aF4.5600000000000414e-07
aF4.5700000000000416e-07
aF4.580000000000042e-07
aF4.590000000000042e-07
aF4.600000000000042e-07
aF4.6100000000000425e-07
aF4.6200000000000427e-07
aF4.630000000000043e-07
aF4.640000000000043e-07
aF4.6500000000000434e-07
aF4.6600000000000436e-07
aF4.670000000000044e-07
aF4.680000000000044e-07
aF4.690000000000044e-07
aF4.7000000000000445e-07
aF4.7100000000000447e-07
aF4.720000000000045e-07
aF4.730000000000045e-07
aF4.7400000000000454e-07
aF4.7500000000000456e-07
aF4.760000000000046e-07
aF4.770000000000046e-07
aF4.780000000000046e-07
aF4.790000000000045e-07
aF4.800000000000045e-07
aF4.810000000000045e-07
aF4.820000000000044e-07
aF4.830000000000044e-07
aF4.840000000000044e-07
aF4.850000000000044e-07
aF4.860000000000043e-07
aF4.870000000000043e-07
aF4.880000000000043e-07
aF4.890000000000042e-07
aF4.900000000000042e-07
aF4.910000000000042e-07
aF4.920000000000041e-07
aF4.930000000000041e-07
aF4.940000000000041e-07
aF4.95000000000004e-07
aF4.96000000000004e-07
aF4.97000000000004e-07
aF4.98000000000004e-07
aF4.990000000000039e-07
aF5.000000000000039e-07
aF5.010000000000039e-07
aF5.020000000000038e-07
aF5.030000000000038e-07
aF5.040000000000038e-07
aF5.050000000000037e-07
aF5.060000000000037e-07
aF5.070000000000037e-07
aF5.080000000000036e-07
aF5.090000000000036e-07
aF5.100000000000036e-07
aF5.110000000000036e-07
aF5.120000000000035e-07
aF5.130000000000035e-07
aF5.140000000000035e-07
aF5.150000000000034e-07
aF5.160000000000034e-07
aF5.170000000000034e-07
aF5.180000000000033e-07
aF5.190000000000033e-07
aF5.200000000000033e-07
aF5.210000000000032e-07
aF5.220000000000032e-07
aF5.230000000000032e-07
aF5.240000000000032e-07
aF5.250000000000031e-07
aF5.260000000000031e-07
aF5.270000000000031e-07
aF5.28000000000003e-07
aF5.29000000000003e-07
aF5.30000000000003e-07
aF5.310000000000029e-07
aF5.320000000000029e-07
aF5.330000000000029e-07
aF5.340000000000028e-07
aF5.350000000000028e-07
aF5.360000000000028e-07
aF5.370000000000028e-07
aF5.380000000000027e-07
aF5.390000000000027e-07
aF5.400000000000027e-07
aF5.410000000000026e-07
aF5.420000000000026e-07
aF5.430000000000026e-07
aF5.440000000000025e-07
aF5.450000000000025e-07
aF5.460000000000025e-07
aF5.470000000000024e-07
aF5.480000000000024e-07
aF5.490000000000024e-07
aF5.500000000000024e-07
aF5.510000000000023e-07
aF5.520000000000023e-07
aF5.530000000000023e-07
aF5.540000000000022e-07
aF5.550000000000022e-07
aF5.560000000000022e-07
aF5.570000000000021e-07
aF5.580000000000021e-07
aF5.590000000000021e-07
aF5.60000000000002e-07
aF5.61000000000002e-07
aF5.62000000000002e-07
aF5.63000000000002e-07
aF5.640000000000019e-07
aF5.650000000000019e-07
aF5.660000000000019e-07
aF5.670000000000018e-07
aF5.680000000000018e-07
aF5.690000000000018e-07
aF5.700000000000017e-07
aF5.710000000000017e-07
aF5.720000000000017e-07
aF5.730000000000017e-07
aF5.740000000000016e-07
aF5.750000000000016e-07
aF5.760000000000016e-07
aF5.770000000000015e-07
aF5.780000000000015e-07
aF5.790000000000015e-07
aF5.800000000000014e-07
aF5.810000000000014e-07
aF5.820000000000014e-07
aF5.830000000000013e-07
aF5.840000000000013e-07
aF5.850000000000013e-07
aF5.860000000000013e-07
aF5.870000000000012e-07
aF5.880000000000012e-07
aF5.890000000000012e-07
aF5.900000000000011e-07
aF5.910000000000011e-07
aF5.920000000000011e-07
aF5.93000000000001e-07
aF5.94000000000001e-07
aF5.95000000000001e-07
aF5.960000000000009e-07
aF5.970000000000009e-07
aF5.980000000000009e-07
aF5.990000000000009e-07
aF6.000000000000008e-07
aF6.010000000000008e-07
aF6.020000000000008e-07
aF6.030000000000007e-07
aF6.040000000000007e-07
aF6.050000000000007e-07
aF6.060000000000006e-07
aF6.070000000000006e-07
aF6.080000000000006e-07
aF6.090000000000005e-07
aF6.100000000000005e-07
aF6.110000000000005e-07
aF6.120000000000005e-07
aF6.130000000000004e-07
aF6.140000000000004e-07
aF6.150000000000004e-07
aF6.160000000000003e-07
aF6.170000000000003e-07
aF6.180000000000003e-07
aF6.190000000000002e-07
aF6.200000000000002e-07
aF6.210000000000002e-07
aF6.220000000000001e-07
aF6.230000000000001e-07
aF6.240000000000001e-07
aF6.25e-07
aF6.26e-07
aF6.27e-07
aF6.28e-07
aF6.289999999999999e-07
aF6.299999999999999e-07
aF6.309999999999999e-07
aF6.319999999999998e-07
aF6.329999999999998e-07
aF6.339999999999998e-07
aF6.349999999999997e-07
aF6.359999999999997e-07
aF6.369999999999997e-07
aF6.379999999999997e-07
aF6.389999999999996e-07
aF6.399999999999996e-07
aF6.409999999999996e-07
aF6.419999999999995e-07
aF6.429999999999995e-07
aF6.439999999999995e-07
aF6.449999999999994e-07
aF6.459999999999994e-07
aF6.469999999999994e-07
aF6.479999999999993e-07
aF6.489999999999993e-07
aF6.499999999999993e-07
aF6.509999999999993e-07
aF6.519999999999992e-07
aF6.529999999999992e-07
aF6.539999999999992e-07
aF6.549999999999991e-07
aF6.559999999999991e-07
aF6.569999999999991e-07
aF6.57999999999999e-07
aF6.58999999999999e-07
aF6.59999999999999e-07
aF6.609999999999989e-07
aF6.619999999999989e-07
aF6.629999999999989e-07
aF6.639999999999989e-07
aF6.649999999999988e-07
aF6.659999999999988e-07
aF6.669999999999988e-07
aF6.679999999999987e-07
aF6.689999999999987e-07
aF6.699999999999987e-07
aF6.709999999999986e-07
aF6.719999999999986e-07
aF6.729999999999986e-07
aF6.739999999999985e-07
aF6.749999999999985e-07
aF6.759999999999985e-07
aF6.769999999999985e-07
aF6.779999999999984e-07
aF6.789999999999984e-07
aF6.799999999999984e-07
aF6.809999999999983e-07
aF6.819999999999983e-07
aF6.829999999999983e-07
aF6.839999999999982e-07
aF6.849999999999982e-07
aF6.859999999999982e-07
aF6.869999999999981e-07
aF6.879999999999981e-07
aF6.889999999999981e-07
aF6.89999999999998e-07
aF6.90999999999998e-07
aF6.91999999999998e-07
aF6.92999999999998e-07
aF6.939999999999979e-07
aF6.949999999999979e-07
aF6.959999999999979e-07
aF6.969999999999978e-07
aF6.979999999999978e-07
aF6.989999999999978e-07
aF6.999999999999977e-07
aF7.009999999999977e-07
aF7.019999999999977e-07
aF7.029999999999977e-07
aF7.039999999999976e-07
aF7.049999999999976e-07
aF7.059999999999976e-07
aF7.069999999999975e-07
aF7.079999999999975e-07
aF7.089999999999975e-07
aF7.099999999999974e-07
aF7.109999999999974e-07
aF7.119999999999974e-07
aF7.129999999999973e-07
aF7.139999999999973e-07
aF7.149999999999973e-07
aF7.159999999999973e-07
aF7.169999999999972e-07
aF7.179999999999972e-07
aF7.189999999999972e-07
aF7.199999999999971e-07
aF7.209999999999971e-07
aF7.219999999999971e-07
aF7.22999999999997e-07
aF7.23999999999997e-07
aF7.24999999999997e-07
aF7.259999999999969e-07
aF7.269999999999969e-07
aF7.279999999999969e-07
aF7.289999999999969e-07
aF7.299999999999968e-07
aF7.309999999999968e-07
aF7.319999999999968e-07
aF7.329999999999967e-07
aF7.339999999999967e-07
aF7.349999999999967e-07
aF7.359999999999966e-07
aF7.369999999999966e-07
aF7.379999999999966e-07
aF7.389999999999965e-07
aF7.399999999999965e-07
aF7.409999999999965e-07
aF7.419999999999965e-07
aF7.429999999999964e-07
aF7.439999999999964e-07
aF7.449999999999964e-07
aF7.459999999999963e-07
aF7.469999999999963e-07
aF7.479999999999963e-07
aF7.489999999999962e-07
aF7.499999999999962e-07
aF7.509999999999962e-07
aF7.519999999999961e-07
aF7.529999999999961e-07
aF7.539999999999961e-07
aF7.549999999999961e-07
aF7.55999999999996e-07
aF7.56999999999996e-07
aF7.57999999999996e-07
aF7.589999999999959e-07
aF7.599999999999959e-07
aF7.609999999999959e-07
aF7.619999999999958e-07
aF7.629999999999958e-07
aF7.639999999999958e-07
aF7.649999999999957e-07
aF7.659999999999957e-07
aF7.669999999999957e-07
aF7.679999999999957e-07
aF7.689999999999956e-07
aF7.699999999999956e-07
aF7.709999999999956e-07
aF7.719999999999955e-07
aF7.729999999999955e-07
aF7.739999999999955e-07
aF7.749999999999954e-07
aF7.759999999999954e-07
aF7.769999999999954e-07
aF7.779999999999953e-07
aF7.789999999999953e-07
aF7.799999999999953e-07
aF7.809999999999953e-07
aF7.819999999999952e-07
aF7.829999999999952e-07
aF7.839999999999952e-07
aF7.849999999999951e-07
aF7.859999999999951e-07
aF7.869999999999951e-07
aF7.87999999999995e-07
aF7.88999999999995e-07
aF7.89999999999995e-07
aF7.909999999999949e-07
aF7.919999999999949e-07
aF7.929999999999949e-07
aF7.939999999999949e-07
aF7.949999999999948e-07
aF7.959999999999948e-07
aF7.969999999999948e-07
aF7.979999999999947e-07
aF7.989999999999947e-07
aF7.999999999999947e-07
aF8.009999999999946e-07
aF8.019999999999946e-07
aF8.029999999999946e-07
aF8.039999999999945e-07
aF8.049999999999945e-07
aF8.059999999999945e-07
aF8.069999999999945e-07
aF8.079999999999944e-07
aF8.089999999999944e-07
aF8.099999999999944e-07
aF8.109999999999943e-07
aF8.119999999999943e-07
aF8.129999999999943e-07
aF8.139999999999942e-07
aF8.149999999999942e-07
aF8.159999999999942e-07
aF8.169999999999941e-07
aF8.179999999999941e-07
aF8.189999999999941e-07
aF8.199999999999941e-07
aF8.20999999999994e-07
aF8.21999999999994e-07
aF8.22999999999994e-07
aF8.239999999999939e-07
aF8.249999999999939e-07
aF8.259999999999939e-07
aF8.269999999999938e-07
aF8.279999999999938e-07
aF8.289999999999938e-07
aF8.299999999999937e-07
aF8.309999999999937e-07
aF8.319999999999937e-07
aF8.329999999999937e-07
aF8.339999999999936e-07
aF8.349999999999936e-07
aF8.359999999999936e-07
aF8.369999999999935e-07
aF8.379999999999935e-07
aF8.389999999999935e-07
aF8.399999999999934e-07
aF8.409999999999934e-07
aF8.419999999999934e-07
aF8.429999999999933e-07
aF8.439999999999933e-07
aF8.449999999999933e-07
aF8.459999999999933e-07
aF8.469999999999932e-07
aF8.479999999999932e-07
aF8.489999999999932e-07
aF8.499999999999931e-07
aF8.509999999999931e-07
aF8.519999999999931e-07
aF8.52999999999993e-07
aF8.53999999999993e-07
aF8.54999999999993e-07
aF8.55999999999993e-07
aF8.569999999999929e-07
aF8.579999999999929e-07
aF8.589999999999929e-07
aF8.599999999999928e-07
aF8.609999999999928e-07
aF8.619999999999928e-07
aF8.629999999999927e-07
aF8.639999999999927e-07
aF8.649999999999927e-07
aF8.659999999999926e-07
aF8.669999999999926e-07
aF8.679999999999926e-07
aF8.689999999999925e-07
aF8.699999999999925e-07
aF8.709999999999925e-07
aF8.719999999999925e-07
aF8.729999999999924e-07
aF8.739999999999924e-07
aF8.749999999999924e-07
aF8.759999999999923e-07
aF8.769999999999923e-07
aF8.779999999999923e-07
aF8.789999999999922e-07
aF8.799999999999922e-07
aF8.809999999999922e-07
aF8.819999999999921e-07
aF8.829999999999921e-07
aF8.839999999999921e-07
aF8.849999999999921e-07
aF8.85999999999992e-07
aF8.86999999999992e-07
aF8.87999999999992e-07
aF8.889999999999919e-07
aF8.899999999999919e-07
aF8.909999999999919e-07
aF8.919999999999918e-07
aF8.929999999999918e-07
aF8.939999999999918e-07
aF8.949999999999917e-07
aF8.959999999999917e-07
aF8.969999999999917e-07
aF8.979999999999917e-07
aF8.989999999999916e-07
aF8.999999999999916e-07
aF9.009999999999916e-07
aF9.019999999999915e-07
aF9.029999999999915e-07
aF9.039999999999915e-07
aF9.049999999999914e-07
aF9.059999999999914e-07
aF9.069999999999914e-07
aF9.079999999999913e-07
aF9.089999999999913e-07
aF9.099999999999913e-07
aF9.109999999999913e-07
aF9.119999999999912e-07
aF9.129999999999912e-07
aF9.139999999999912e-07
aF9.149999999999911e-07
aF9.159999999999911e-07
aF9.169999999999911e-07
aF9.17999999999991e-07
aF9.18999999999991e-07
aF9.19999999999991e-07
aF9.20999999999991e-07
aF9.219999999999909e-07
aF9.229999999999909e-07
aF9.239999999999909e-07
aF9.249999999999908e-07
aF9.259999999999908e-07
aF9.269999999999908e-07
aF9.279999999999907e-07
aF9.289999999999907e-07
aF9.299999999999907e-07
aF9.309999999999906e-07
aF9.319999999999906e-07
aF9.329999999999906e-07
aF9.339999999999905e-07
aF9.349999999999905e-07
aF9.359999999999905e-07
aF9.369999999999905e-07
aF9.379999999999904e-07
aF9.389999999999904e-07
aF9.399999999999904e-07
aF9.409999999999903e-07
aF9.419999999999903e-07
aF9.429999999999903e-07
aF9.439999999999902e-07
aF9.449999999999902e-07
aF9.459999999999902e-07
aF9.469999999999901e-07
aF9.479999999999901e-07
aF9.489999999999901e-07
aF9.499999999999901e-07
aF9.5099999999999e-07
aF9.5199999999999e-07
aF9.5299999999999e-07
aF9.5399999999999e-07
aF9.5499999999999e-07
aF9.5599999999999e-07
aF9.569999999999902e-07
aF9.579999999999902e-07
aF9.589999999999903e-07
aF9.599999999999904e-07
aF9.609999999999905e-07
aF9.619999999999905e-07
aF9.629999999999906e-07
aF9.639999999999907e-07
aF9.649999999999908e-07
aF9.659999999999908e-07
aF9.66999999999991e-07
aF9.67999999999991e-07
aF9.68999999999991e-07
aF9.699999999999911e-07
aF9.709999999999912e-07
aF9.719999999999913e-07
aF9.729999999999914e-07
aF9.739999999999914e-07
aF9.749999999999915e-07
aF9.759999999999916e-07
aF9.769999999999917e-07
aF9.779999999999917e-07
aF9.789999999999918e-07
aF9.799999999999919e-07
aF9.80999999999992e-07
aF9.81999999999992e-07
aF9.829999999999921e-07
aF9.839999999999922e-07
aF9.849999999999923e-07
aF9.859999999999923e-07
aF9.869999999999924e-07
aF9.879999999999925e-07
aF9.889999999999926e-07
aF9.899999999999926e-07
aF9.909999999999927e-07
aF9.919999999999928e-07
aF9.929999999999929e-07
aF9.93999999999993e-07
aF9.94999999999993e-07
aF9.95999999999993e-07
aF9.969999999999932e-07
aF9.979999999999932e-07
aF9.989999999999933e-07
aF9.999999999999934e-07
aF1.0009999999999935e-06
aF1.0019999999999935e-06
aF1.0029999999999936e-06
aF1.0039999999999937e-06
aF1.0049999999999938e-06
aF1.0059999999999938e-06
aF1.006999999999994e-06
aF1.007999999999994e-06
aF1.008999999999994e-06
aF1.0099999999999941e-06
aF1.0109999999999942e-06
aF1.0119999999999943e-06
aF1.0129999999999944e-06
aF1.0139999999999944e-06
aF1.0149999999999945e-06
aF1.0159999999999946e-06
aF1.0169999999999947e-06
aF1.0179999999999947e-06
aF1.0189999999999948e-06
aF1.0199999999999949e-06
aF1.020999999999995e-06
aF1.021999999999995e-06
aF1.0229999999999951e-06
aF1.0239999999999952e-06
a.