(lp0
I0
aF1e-09
aF2e-09
aF3.0000000000000004e-09
aF4e-09
aF5e-09
aF6e-09
aF7e-09
aF8e-09
aF9.000000000000001e-09
aF1.0000000000000002e-08
aF1.1000000000000003e-08
aF1.2000000000000003e-08
aF1.3000000000000004e-08
aF1.4000000000000005e-08
aF1.5000000000000005e-08
aF1.6000000000000004e-08
aF1.7000000000000003e-08
aF1.8000000000000002e-08
aF1.9e-08
aF2e-08
aF2.1e-08
aF2.2e-08
aF2.2999999999999998e-08
aF2.3999999999999997e-08
aF2.4999999999999996e-08
aF2.5999999999999995e-08
aF2.6999999999999994e-08
aF2.7999999999999993e-08
aF2.8999999999999992e-08
aF2.999999999999999e-08
aF3.099999999999999e-08
aF3.1999999999999995e-08
aF3.3e-08
aF3.4e-08
aF3.5e-08
aF3.6000000000000005e-08
aF3.700000000000001e-08
aF3.800000000000001e-08
aF3.900000000000001e-08
aF4.0000000000000014e-08
aF4.1000000000000016e-08
aF4.200000000000002e-08
aF4.300000000000002e-08
aF4.4000000000000023e-08
aF4.5000000000000026e-08
aF4.600000000000003e-08
aF4.700000000000003e-08
aF4.800000000000003e-08
aF4.9000000000000035e-08
aF5.000000000000004e-08
aF5.100000000000004e-08
aF5.200000000000004e-08
aF5.3000000000000044e-08
aF5.400000000000005e-08
aF5.500000000000005e-08
aF5.600000000000005e-08
aF5.7000000000000054e-08
aF5.8000000000000056e-08
aF5.900000000000006e-08
aF6.000000000000006e-08
aF6.100000000000006e-08
aF6.200000000000005e-08
aF6.300000000000005e-08
aF6.400000000000004e-08
aF6.500000000000004e-08
aF6.600000000000004e-08
aF6.700000000000003e-08
aF6.800000000000003e-08
aF6.900000000000002e-08
aF7.000000000000002e-08
aF7.100000000000001e-08
aF7.200000000000001e-08
aF7.3e-08
aF7.4e-08
aF7.5e-08
aF7.599999999999999e-08
aF7.699999999999999e-08
aF7.799999999999998e-08
aF7.899999999999998e-08
aF7.999999999999998e-08
aF8.099999999999997e-08
aF8.199999999999997e-08
aF8.299999999999996e-08
aF8.399999999999996e-08
aF8.499999999999995e-08
aF8.599999999999995e-08
aF8.699999999999995e-08
aF8.799999999999994e-08
aF8.899999999999994e-08
aF8.999999999999993e-08
aF9.099999999999993e-08
aF9.199999999999992e-08
aF9.299999999999992e-08
aF9.399999999999992e-08
aF9.499999999999991e-08
aF9.599999999999991e-08
aF9.69999999999999e-08
aF9.79999999999999e-08
aF9.89999999999999e-08
aF9.999999999999989e-08
aF1.0099999999999989e-07
aF1.0199999999999988e-07
aF1.0299999999999988e-07
aF1.0399999999999987e-07
aF1.0499999999999987e-07
aF1.0599999999999986e-07
aF1.0699999999999986e-07
aF1.0799999999999986e-07
aF1.0899999999999985e-07
aF1.0999999999999985e-07
aF1.1099999999999984e-07
aF1.1199999999999984e-07
aF1.1299999999999983e-07
aF1.1399999999999983e-07
aF1.1499999999999983e-07
aF1.1599999999999982e-07
aF1.1699999999999982e-07
aF1.1799999999999981e-07
aF1.1899999999999981e-07
aF1.199999999999998e-07
aF1.209999999999998e-07
aF1.219999999999998e-07
aF1.229999999999998e-07
aF1.239999999999998e-07
aF1.2499999999999978e-07
aF1.2599999999999978e-07
aF1.2699999999999977e-07
aF1.2799999999999977e-07
aF1.2899999999999977e-07
aF1.2999999999999976e-07
aF1.3099999999999976e-07
aF1.3199999999999975e-07
aF1.3299999999999975e-07
aF1.3399999999999974e-07
aF1.3499999999999974e-07
aF1.3599999999999974e-07
aF1.3699999999999973e-07
aF1.3799999999999973e-07
aF1.3899999999999972e-07
aF1.3999999999999972e-07
aF1.4099999999999971e-07
aF1.419999999999997e-07
aF1.429999999999997e-07
aF1.439999999999997e-07
aF1.449999999999997e-07
aF1.459999999999997e-07
aF1.469999999999997e-07
aF1.4799999999999968e-07
aF1.4899999999999968e-07
aF1.4999999999999968e-07
aF1.5099999999999967e-07
aF1.5199999999999967e-07
aF1.5299999999999966e-07
aF1.5399999999999966e-07
aF1.5499999999999965e-07
aF1.5599999999999965e-07
aF1.5699999999999965e-07
aF1.5799999999999964e-07
aF1.5899999999999964e-07
aF1.5999999999999963e-07
aF1.6099999999999963e-07
aF1.6199999999999962e-07
aF1.6299999999999962e-07
aF1.6399999999999962e-07
aF1.649999999999996e-07
aF1.659999999999996e-07
aF1.669999999999996e-07
aF1.679999999999996e-07
aF1.689999999999996e-07
aF1.699999999999996e-07
aF1.7099999999999959e-07
aF1.7199999999999958e-07
aF1.7299999999999958e-07
aF1.7399999999999957e-07
aF1.7499999999999957e-07
aF1.7599999999999956e-07
aF1.7699999999999956e-07
aF1.7799999999999956e-07
aF1.7899999999999955e-07
aF1.7999999999999955e-07
aF1.8099999999999954e-07
aF1.8199999999999954e-07
aF1.8299999999999953e-07
aF1.8399999999999953e-07
aF1.8499999999999953e-07
aF1.8599999999999952e-07
aF1.8699999999999952e-07
aF1.879999999999995e-07
aF1.889999999999995e-07
aF1.899999999999995e-07
aF1.909999999999995e-07
aF1.919999999999995e-07
aF1.929999999999995e-07
aF1.939999999999995e-07
aF1.9499999999999948e-07
aF1.9599999999999948e-07
aF1.9699999999999947e-07
aF1.9799999999999947e-07
aF1.9899999999999947e-07
aF1.9999999999999946e-07
aF2.0099999999999946e-07
aF2.0199999999999945e-07
aF2.0299999999999945e-07
aF2.0399999999999944e-07
aF2.0499999999999944e-07
aF2.0599999999999944e-07
aF2.0699999999999943e-07
aF2.0799999999999943e-07
aF2.0899999999999942e-07
aF2.0999999999999942e-07
aF2.1099999999999941e-07
aF2.119999999999994e-07
aF2.129999999999994e-07
aF2.139999999999994e-07
aF2.149999999999994e-07
aF2.159999999999994e-07
aF2.169999999999994e-07
aF2.1799999999999938e-07
aF2.1899999999999938e-07
aF2.1999999999999938e-07
aF2.2099999999999937e-07
aF2.2199999999999937e-07
aF2.2299999999999936e-07
aF2.2399999999999936e-07
aF2.2499999999999935e-07
aF2.2599999999999935e-07
aF2.2699999999999935e-07
aF2.2799999999999934e-07
aF2.2899999999999934e-07
aF2.2999999999999933e-07
aF2.3099999999999933e-07
aF2.3199999999999932e-07
aF2.3299999999999932e-07
aF2.3399999999999932e-07
aF2.349999999999993e-07
aF2.359999999999993e-07
aF2.369999999999993e-07
aF2.379999999999993e-07
aF2.389999999999993e-07
aF2.3999999999999934e-07
aF2.4099999999999937e-07
aF2.419999999999994e-07
aF2.429999999999994e-07
aF2.4399999999999943e-07
aF2.4499999999999945e-07
aF2.459999999999995e-07
aF2.469999999999995e-07
aF2.479999999999995e-07
aF2.4899999999999954e-07
aF2.4999999999999957e-07
aF2.509999999999996e-07
aF2.519999999999996e-07
aF2.5299999999999963e-07
aF2.5399999999999965e-07
aF2.549999999999997e-07
aF2.559999999999997e-07
aF2.569999999999997e-07
aF2.5799999999999974e-07
aF2.5899999999999976e-07
aF2.599999999999998e-07
aF2.609999999999998e-07
aF2.6199999999999983e-07
aF2.6299999999999985e-07
aF2.639999999999999e-07
aF2.649999999999999e-07
aF2.659999999999999e-07
aF2.6699999999999994e-07
aF2.6799999999999996e-07
aF2.69e-07
aF2.7e-07
aF2.7100000000000003e-07
aF2.7200000000000005e-07
aF2.730000000000001e-07
aF2.740000000000001e-07
aF2.750000000000001e-07
aF2.7600000000000014e-07
aF2.7700000000000016e-07
aF2.780000000000002e-07
aF2.790000000000002e-07
aF2.8000000000000023e-07
aF2.8100000000000025e-07
aF2.820000000000003e-07
aF2.830000000000003e-07
aF2.840000000000003e-07
aF2.8500000000000034e-07
aF2.8600000000000036e-07
aF2.870000000000004e-07
aF2.880000000000004e-07
aF2.8900000000000043e-07
aF2.9000000000000045e-07
aF2.910000000000005e-07
aF2.920000000000005e-07
aF2.930000000000005e-07
aF2.9400000000000054e-07
aF2.9500000000000056e-07
aF2.960000000000006e-07
aF2.970000000000006e-07
aF2.9800000000000063e-07
aF2.9900000000000065e-07
aF3.000000000000007e-07
aF3.010000000000007e-07
aF3.020000000000007e-07
aF3.0300000000000074e-07
aF3.0400000000000076e-07
aF3.050000000000008e-07
aF3.060000000000008e-07
aF3.0700000000000083e-07
aF3.0800000000000085e-07
aF3.090000000000009e-07
aF3.100000000000009e-07
aF3.110000000000009e-07
aF3.1200000000000094e-07
aF3.1300000000000096e-07
aF3.14000000000001e-07
aF3.15000000000001e-07
aF3.1600000000000103e-07
aF3.1700000000000105e-07
aF3.180000000000011e-07
aF3.190000000000011e-07
aF3.200000000000011e-07
aF3.2100000000000114e-07
aF3.2200000000000116e-07
aF3.230000000000012e-07
aF3.240000000000012e-07
aF3.2500000000000123e-07
aF3.2600000000000125e-07
aF3.270000000000013e-07
aF3.280000000000013e-07
aF3.290000000000013e-07
aF3.3000000000000134e-07
aF3.3100000000000136e-07
aF3.320000000000014e-07
aF3.330000000000014e-07
aF3.3400000000000143e-07
aF3.3500000000000145e-07
aF3.3600000000000147e-07
aF3.370000000000015e-07
aF3.380000000000015e-07
aF3.3900000000000154e-07
aF3.4000000000000156e-07
aF3.410000000000016e-07
aF3.420000000000016e-07
aF3.4300000000000163e-07
aF3.4400000000000165e-07
aF3.4500000000000167e-07
aF3.460000000000017e-07
aF3.470000000000017e-07
aF3.4800000000000174e-07
aF3.4900000000000176e-07
aF3.500000000000018e-07
aF3.510000000000018e-07
aF3.5200000000000183e-07
aF3.5300000000000185e-07
aF3.5400000000000187e-07
aF3.550000000000019e-07
aF3.560000000000019e-07
aF3.5700000000000194e-07
aF3.5800000000000196e-07
aF3.59000000000002e-07
aF3.60000000000002e-07
aF3.6100000000000203e-07
aF3.6200000000000205e-07
aF3.6300000000000207e-07
aF3.640000000000021e-07
aF3.650000000000021e-07
aF3.6600000000000214e-07
aF3.6700000000000216e-07
aF3.680000000000022e-07
aF3.690000000000022e-07
aF3.7000000000000223e-07
aF3.7100000000000225e-07
aF3.7200000000000227e-07
aF3.730000000000023e-07
aF3.740000000000023e-07
aF3.7500000000000234e-07
aF3.7600000000000236e-07
aF3.770000000000024e-07
aF3.780000000000024e-07
aF3.7900000000000243e-07
aF3.8000000000000245e-07
aF3.8100000000000247e-07
aF3.820000000000025e-07
aF3.830000000000025e-07
aF3.8400000000000254e-07
aF3.8500000000000256e-07
aF3.860000000000026e-07
aF3.870000000000026e-07
aF3.8800000000000263e-07
aF3.8900000000000265e-07
aF3.9000000000000267e-07
aF3.910000000000027e-07
aF3.920000000000027e-07
aF3.9300000000000274e-07
aF3.9400000000000276e-07
aF3.950000000000028e-07
aF3.960000000000028e-07
aF3.9700000000000283e-07
aF3.9800000000000285e-07
aF3.9900000000000287e-07
aF4.000000000000029e-07
aF4.010000000000029e-07
aF4.0200000000000294e-07
aF4.0300000000000296e-07
aF4.04000000000003e-07
aF4.05000000000003e-07
aF4.0600000000000303e-07
aF4.0700000000000305e-07
aF4.0800000000000307e-07
aF4.090000000000031e-07
aF4.100000000000031e-07
aF4.1100000000000314e-07
aF4.1200000000000316e-07
aF4.130000000000032e-07
aF4.140000000000032e-07
aF4.150000000000032e-07
aF4.1600000000000325e-07
aF4.1700000000000327e-07
aF4.180000000000033e-07
aF4.190000000000033e-07
aF4.2000000000000334e-07
aF4.2100000000000336e-07
aF4.220000000000034e-07
aF4.230000000000034e-07
aF4.240000000000034e-07
aF4.2500000000000345e-07
aF4.2600000000000347e-07
aF4.270000000000035e-07
aF4.280000000000035e-07
aF4.2900000000000354e-07
aF4.3000000000000356e-07
aF4.310000000000036e-07
aF4.320000000000036e-07
aF4.330000000000036e-07
aF4.3400000000000365e-07
aF4.3500000000000367e-07
aF4.360000000000037e-07
aF4.370000000000037e-07
aF4.3800000000000374e-07
aF4.3900000000000376e-07
aF4.400000000000038e-07
aF4.410000000000038e-07
aF4.420000000000038e-07
aF4.4300000000000385e-07
aF4.4400000000000387e-07
aF4.450000000000039e-07
aF4.460000000000039e-07
aF4.4700000000000394e-07
aF4.4800000000000396e-07
aF4.49000000000004e-07
aF4.50000000000004e-07
aF4.51000000000004e-07
aF4.5200000000000405e-07
aF4.5300000000000407e-07
aF4.540000000000041e-07
aF4.550000000000041e-07
aF4.5600000000000414e-07
aF4.5700000000000416e-07
aF4.580000000000042e-07
aF4.590000000000042e-07
aF4.600000000000042e-07
aF4.6100000000000425e-07
aF4.6200000000000427e-07
aF4.630000000000043e-07
aF4.640000000000043e-07
aF4.6500000000000434e-07
aF4.6600000000000436e-07
aF4.670000000000044e-07
aF4.680000000000044e-07
aF4.690000000000044e-07
aF4.7000000000000445e-07
aF4.7100000000000447e-07
aF4.720000000000045e-07
aF4.730000000000045e-07
aF4.7400000000000454e-07
aF4.7500000000000456e-07
aF4.760000000000046e-07
aF4.770000000000046e-07
aF4.780000000000046e-07
aF4.790000000000045e-07
aF4.800000000000045e-07
aF4.810000000000045e-07
aF4.820000000000044e-07
aF4.830000000000044e-07
aF4.840000000000044e-07
aF4.850000000000044e-07
aF4.860000000000043e-07
aF4.870000000000043e-07
aF4.880000000000043e-07
aF4.890000000000042e-07
aF4.900000000000042e-07
aF4.910000000000042e-07
aF4.920000000000041e-07
aF4.930000000000041e-07
aF4.940000000000041e-07
aF4.95000000000004e-07
aF4.96000000000004e-07
aF4.97000000000004e-07
aF4.98000000000004e-07
aF4.990000000000039e-07
aF5.000000000000039e-07
aF5.010000000000039e-07
aF5.020000000000038e-07
aF5.030000000000038e-07
aF5.040000000000038e-07
aF5.050000000000037e-07
aF5.060000000000037e-07
aF5.070000000000037e-07
aF5.080000000000036e-07
aF5.090000000000036e-07
aF5.100000000000036e-07
aF5.110000000000036e-07
aF5.120000000000035e-07
aF5.130000000000035e-07
aF5.140000000000035e-07
aF5.150000000000034e-07
aF5.160000000000034e-07
aF5.170000000000034e-07
aF5.180000000000033e-07
aF5.190000000000033e-07
aF5.200000000000033e-07
aF5.210000000000032e-07
aF5.220000000000032e-07
aF5.230000000000032e-07
aF5.240000000000032e-07
aF5.250000000000031e-07
aF5.260000000000031e-07
aF5.270000000000031e-07
aF5.28000000000003e-07
aF5.29000000000003e-07
aF5.30000000000003e-07
aF5.310000000000029e-07
aF5.320000000000029e-07
aF5.330000000000029e-07
aF5.340000000000028e-07
aF5.350000000000028e-07
aF5.360000000000028e-07
aF5.370000000000028e-07
aF5.380000000000027e-07
aF5.390000000000027e-07
aF5.400000000000027e-07
aF5.410000000000026e-07
aF5.420000000000026e-07
aF5.430000000000026e-07
aF5.440000000000025e-07
aF5.450000000000025e-07
aF5.460000000000025e-07
aF5.470000000000024e-07
aF5.480000000000024e-07
aF5.490000000000024e-07
aF5.500000000000024e-07
aF5.510000000000023e-07
aF5.520000000000023e-07
aF5.530000000000023e-07
aF5.540000000000022e-07
aF5.550000000000022e-07
aF5.560000000000022e-07
aF5.570000000000021e-07
aF5.580000000000021e-07
aF5.590000000000021e-07
aF5.60000000000002e-07
aF5.61000000000002e-07
aF5.62000000000002e-07
aF5.63000000000002e-07
aF5.640000000000019e-07
aF5.650000000000019e-07
aF5.660000000000019e-07
aF5.670000000000018e-07
aF5.680000000000018e-07
aF5.690000000000018e-07
aF5.700000000000017e-07
aF5.710000000000017e-07
aF5.720000000000017e-07
aF5.730000000000017e-07
aF5.740000000000016e-07
aF5.750000000000016e-07
aF5.760000000000016e-07
aF5.770000000000015e-07
aF5.780000000000015e-07
aF5.790000000000015e-07
aF5.800000000000014e-07
aF5.810000000000014e-07
aF5.820000000000014e-07
aF5.830000000000013e-07
aF5.840000000000013e-07
aF5.850000000000013e-07
aF5.860000000000013e-07
aF5.870000000000012e-07
aF5.880000000000012e-07
aF5.890000000000012e-07
aF5.900000000000011e-07
aF5.910000000000011e-07
aF5.920000000000011e-07
aF5.93000000000001e-07
aF5.94000000000001e-07
aF5.95000000000001e-07
aF5.960000000000009e-07
aF5.970000000000009e-07
aF5.980000000000009e-07
aF5.990000000000009e-07
aF6.000000000000008e-07
aF6.010000000000008e-07
aF6.020000000000008e-07
aF6.030000000000007e-07
aF6.040000000000007e-07
aF6.050000000000007e-07
aF6.060000000000006e-07
aF6.070000000000006e-07
aF6.080000000000006e-07
aF6.090000000000005e-07
aF6.100000000000005e-07
aF6.110000000000005e-07
aF6.120000000000005e-07
aF6.130000000000004e-07
aF6.140000000000004e-07
aF6.150000000000004e-07
aF6.160000000000003e-07
aF6.170000000000003e-07
aF6.180000000000003e-07
aF6.190000000000002e-07
aF6.200000000000002e-07
aF6.210000000000002e-07
aF6.220000000000001e-07
aF6.230000000000001e-07
aF6.240000000000001e-07
aF6.25e-07
aF6.26e-07
aF6.27e-07
aF6.28e-07
aF6.289999999999999e-07
aF6.299999999999999e-07
aF6.309999999999999e-07
aF6.319999999999998e-07
aF6.329999999999998e-07
aF6.339999999999998e-07
aF6.349999999999997e-07
aF6.359999999999997e-07
aF6.369999999999997e-07
aF6.379999999999997e-07
aF6.389999999999996e-07
aF6.399999999999996e-07
aF6.409999999999996e-07
aF6.419999999999995e-07
aF6.429999999999995e-07
aF6.439999999999995e-07
aF6.449999999999994e-07
aF6.459999999999994e-07
aF6.469999999999994e-07
aF6.479999999999993e-07
aF6.489999999999993e-07
aF6.499999999999993e-07
aF6.509999999999993e-07
aF6.519999999999992e-07
aF6.529999999999992e-07
aF6.539999999999992e-07
aF6.549999999999991e-07
aF6.559999999999991e-07
aF6.569999999999991e-07
aF6.57999999999999e-07
aF6.58999999999999e-07
aF6.59999999999999e-07
aF6.609999999999989e-07
aF6.619999999999989e-07
aF6.629999999999989e-07
aF6.639999999999989e-07
aF6.649999999999988e-07
aF6.659999999999988e-07
aF6.669999999999988e-07
aF6.679999999999987e-07
aF6.689999999999987e-07
aF6.699999999999987e-07
aF6.709999999999986e-07
aF6.719999999999986e-07
aF6.729999999999986e-07
aF6.739999999999985e-07
aF6.749999999999985e-07
aF6.759999999999985e-07
aF6.769999999999985e-07
aF6.779999999999984e-07
aF6.789999999999984e-07
aF6.799999999999984e-07
aF6.809999999999983e-07
aF6.819999999999983e-07
aF6.829999999999983e-07
aF6.839999999999982e-07
aF6.849999999999982e-07
aF6.859999999999982e-07
aF6.869999999999981e-07
aF6.879999999999981e-07
aF6.889999999999981e-07
aF6.89999999999998e-07
aF6.90999999999998e-07
aF6.91999999999998e-07
aF6.92999999999998e-07
aF6.939999999999979e-07
aF6.949999999999979e-07
aF6.959999999999979e-07
aF6.969999999999978e-07
aF6.979999999999978e-07
aF6.989999999999978e-07
aF6.999999999999977e-07
aF7.009999999999977e-07
aF7.019999999999977e-07
aF7.029999999999977e-07
aF7.039999999999976e-07
aF7.049999999999976e-07
aF7.059999999999976e-07
aF7.069999999999975e-07
aF7.079999999999975e-07
aF7.089999999999975e-07
aF7.099999999999974e-07
aF7.109999999999974e-07
aF7.119999999999974e-07
aF7.129999999999973e-07
aF7.139999999999973e-07
aF7.149999999999973e-07
aF7.159999999999973e-07
aF7.169999999999972e-07
aF7.179999999999972e-07
aF7.189999999999972e-07
aF7.199999999999971e-07
aF7.209999999999971e-07
aF7.219999999999971e-07
aF7.22999999999997e-07
aF7.23999999999997e-07
aF7.24999999999997e-07
aF7.259999999999969e-07
aF7.269999999999969e-07
aF7.279999999999969e-07
aF7.289999999999969e-07
aF7.299999999999968e-07
aF7.309999999999968e-07
aF7.319999999999968e-07
aF7.329999999999967e-07
aF7.339999999999967e-07
aF7.349999999999967e-07
aF7.359999999999966e-07
aF7.369999999999966e-07
aF7.379999999999966e-07
aF7.389999999999965e-07
aF7.399999999999965e-07
aF7.409999999999965e-07
aF7.419999999999965e-07
aF7.429999999999964e-07
aF7.439999999999964e-07
aF7.449999999999964e-07
aF7.459999999999963e-07
aF7.469999999999963e-07
aF7.479999999999963e-07
aF7.489999999999962e-07
aF7.499999999999962e-07
aF7.509999999999962e-07
aF7.519999999999961e-07
aF7.529999999999961e-07
aF7.539999999999961e-07
aF7.549999999999961e-07
aF7.55999999999996e-07
aF7.56999999999996e-07
aF7.57999999999996e-07
aF7.589999999999959e-07
aF7.599999999999959e-07
aF7.609999999999959e-07
aF7.619999999999958e-07
aF7.629999999999958e-07
aF7.639999999999958e-07
aF7.649999999999957e-07
aF7.659999999999957e-07
aF7.669999999999957e-07
aF7.679999999999957e-07
aF7.689999999999956e-07
aF7.699999999999956e-07
aF7.709999999999956e-07
aF7.719999999999955e-07
aF7.729999999999955e-07
aF7.739999999999955e-07
aF7.749999999999954e-07
aF7.759999999999954e-07
aF7.769999999999954e-07
aF7.779999999999953e-07
aF7.789999999999953e-07
aF7.799999999999953e-07
aF7.809999999999953e-07
aF7.819999999999952e-07
aF7.829999999999952e-07
aF7.839999999999952e-07
aF7.849999999999951e-07
aF7.859999999999951e-07
aF7.869999999999951e-07
aF7.87999999999995e-07
aF7.88999999999995e-07
aF7.89999999999995e-07
aF7.909999999999949e-07
aF7.919999999999949e-07
aF7.929999999999949e-07
aF7.939999999999949e-07
aF7.949999999999948e-07
aF7.959999999999948e-07
aF7.969999999999948e-07
aF7.979999999999947e-07
aF7.989999999999947e-07
aF7.999999999999947e-07
aF8.009999999999946e-07
aF8.019999999999946e-07
aF8.029999999999946e-07
aF8.039999999999945e-07
aF8.049999999999945e-07
aF8.059999999999945e-07
aF8.069999999999945e-07
aF8.079999999999944e-07
aF8.089999999999944e-07
aF8.099999999999944e-07
aF8.109999999999943e-07
aF8.119999999999943e-07
aF8.129999999999943e-07
aF8.139999999999942e-07
aF8.149999999999942e-07
aF8.159999999999942e-07
aF8.169999999999941e-07
aF8.179999999999941e-07
aF8.189999999999941e-07
aF8.199999999999941e-07
aF8.20999999999994e-07
aF8.21999999999994e-07
aF8.22999999999994e-07
aF8.239999999999939e-07
aF8.249999999999939e-07
aF8.259999999999939e-07
aF8.269999999999938e-07
aF8.279999999999938e-07
aF8.289999999999938e-07
aF8.299999999999937e-07
aF8.309999999999937e-07
aF8.319999999999937e-07
aF8.329999999999937e-07
aF8.339999999999936e-07
aF8.349999999999936e-07
aF8.359999999999936e-07
aF8.369999999999935e-07
aF8.379999999999935e-07
aF8.389999999999935e-07
aF8.399999999999934e-07
aF8.409999999999934e-07
aF8.419999999999934e-07
aF8.429999999999933e-07
aF8.439999999999933e-07
aF8.449999999999933e-07
aF8.459999999999933e-07
aF8.469999999999932e-07
aF8.479999999999932e-07
aF8.489999999999932e-07
aF8.499999999999931e-07
aF8.509999999999931e-07
aF8.519999999999931e-07
aF8.52999999999993e-07
aF8.53999999999993e-07
aF8.54999999999993e-07
aF8.55999999999993e-07
aF8.569999999999929e-07
aF8.579999999999929e-07
aF8.589999999999929e-07
aF8.599999999999928e-07
aF8.609999999999928e-07
aF8.619999999999928e-07
aF8.629999999999927e-07
aF8.639999999999927e-07
aF8.649999999999927e-07
aF8.659999999999926e-07
aF8.669999999999926e-07
aF8.679999999999926e-07
aF8.689999999999925e-07
aF8.699999999999925e-07
aF8.709999999999925e-07
aF8.719999999999925e-07
aF8.729999999999924e-07
aF8.739999999999924e-07
aF8.749999999999924e-07
aF8.759999999999923e-07
aF8.769999999999923e-07
aF8.779999999999923e-07
aF8.789999999999922e-07
aF8.799999999999922e-07
aF8.809999999999922e-07
aF8.819999999999921e-07
aF8.829999999999921e-07
aF8.839999999999921e-07
aF8.849999999999921e-07
aF8.85999999999992e-07
aF8.86999999999992e-07
aF8.87999999999992e-07
aF8.889999999999919e-07
aF8.899999999999919e-07
aF8.909999999999919e-07
aF8.919999999999918e-07
aF8.929999999999918e-07
aF8.939999999999918e-07
aF8.949999999999917e-07
aF8.959999999999917e-07
aF8.969999999999917e-07
aF8.979999999999917e-07
aF8.989999999999916e-07
aF8.999999999999916e-07
aF9.009999999999916e-07
aF9.019999999999915e-07
aF9.029999999999915e-07
aF9.039999999999915e-07
aF9.049999999999914e-07
aF9.059999999999914e-07
aF9.069999999999914e-07
aF9.079999999999913e-07
aF9.089999999999913e-07
aF9.099999999999913e-07
aF9.109999999999913e-07
aF9.119999999999912e-07
aF9.129999999999912e-07
aF9.139999999999912e-07
aF9.149999999999911e-07
aF9.159999999999911e-07
aF9.169999999999911e-07
aF9.17999999999991e-07
aF9.18999999999991e-07
aF9.19999999999991e-07
aF9.20999999999991e-07
aF9.219999999999909e-07
aF9.229999999999909e-07
aF9.239999999999909e-07
aF9.249999999999908e-07
aF9.259999999999908e-07
aF9.269999999999908e-07
aF9.279999999999907e-07
aF9.289999999999907e-07
aF9.299999999999907e-07
aF9.309999999999906e-07
aF9.319999999999906e-07
aF9.329999999999906e-07
aF9.339999999999905e-07
aF9.349999999999905e-07
aF9.359999999999905e-07
aF9.369999999999905e-07
aF9.379999999999904e-07
aF9.389999999999904e-07
aF9.399999999999904e-07
aF9.409999999999903e-07
aF9.419999999999903e-07
aF9.429999999999903e-07
aF9.439999999999902e-07
aF9.449999999999902e-07
aF9.459999999999902e-07
aF9.469999999999901e-07
aF9.479999999999901e-07
aF9.489999999999901e-07
aF9.499999999999901e-07
aF9.5099999999999e-07
aF9.5199999999999e-07
aF9.5299999999999e-07
aF9.5399999999999e-07
aF9.5499999999999e-07
aF9.5599999999999e-07
aF9.569999999999902e-07
aF9.579999999999902e-07
aF9.589999999999903e-07
aF9.599999999999904e-07
aF9.609999999999905e-07
aF9.619999999999905e-07
aF9.629999999999906e-07
aF9.639999999999907e-07
aF9.649999999999908e-07
aF9.659999999999908e-07
aF9.66999999999991e-07
aF9.67999999999991e-07
aF9.68999999999991e-07
aF9.699999999999911e-07
aF9.709999999999912e-07
aF9.719999999999913e-07
aF9.729999999999914e-07
aF9.739999999999914e-07
aF9.749999999999915e-07
aF9.759999999999916e-07
aF9.769999999999917e-07
aF9.779999999999917e-07
aF9.789999999999918e-07
aF9.799999999999919e-07
aF9.80999999999992e-07
aF9.81999999999992e-07
aF9.829999999999921e-07
aF9.839999999999922e-07
aF9.849999999999923e-07
aF9.859999999999923e-07
aF9.869999999999924e-07
aF9.879999999999925e-07
aF9.889999999999926e-07
aF9.899999999999926e-07
aF9.909999999999927e-07
aF9.919999999999928e-07
aF9.929999999999929e-07
aF9.93999999999993e-07
aF9.94999999999993e-07
aF9.95999999999993e-07
aF9.969999999999932e-07
aF9.979999999999932e-07
aF9.989999999999933e-07
aF9.999999999999934e-07
aF1.0009999999999935e-06
aF1.0019999999999935e-06
aF1.0029999999999936e-06
aF1.0039999999999937e-06
aF1.0049999999999938e-06
aF1.0059999999999938e-06
aF1.006999999999994e-06
aF1.007999999999994e-06
aF1.008999999999994e-06
aF1.0099999999999941e-06
aF1.0109999999999942e-06
aF1.0119999999999943e-06
aF1.0129999999999944e-06
aF1.0139999999999944e-06
aF1.0149999999999945e-06
aF1.0159999999999946e-06
aF1.0169999999999947e-06
aF1.0179999999999947e-06
aF1.0189999999999948e-06
aF1.0199999999999949e-06
aF1.020999999999995e-06
aF1.021999999999995e-06
aF1.0229999999999951e-06
aF1.0239999999999952e-06
aF1.0249999999999953e-06
aF1.0259999999999953e-06
aF1.0269999999999954e-06
aF1.0279999999999955e-06
aF1.0289999999999956e-06
aF1.0299999999999956e-06
aF1.0309999999999957e-06
aF1.0319999999999958e-06
aF1.0329999999999959e-06
aF1.033999999999996e-06
aF1.034999999999996e-06
aF1.035999999999996e-06
aF1.0369999999999962e-06
aF1.0379999999999962e-06
aF1.0389999999999963e-06
aF1.0399999999999964e-06
aF1.0409999999999965e-06
aF1.0419999999999965e-06
aF1.0429999999999966e-06
aF1.0439999999999967e-06
aF1.0449999999999968e-06
aF1.0459999999999968e-06
aF1.046999999999997e-06
aF1.047999999999997e-06
aF1.048999999999997e-06
aF1.0499999999999971e-06
aF1.0509999999999972e-06
aF1.0519999999999973e-06
aF1.0529999999999974e-06
aF1.0539999999999974e-06
aF1.0549999999999975e-06
aF1.0559999999999976e-06
aF1.0569999999999977e-06
aF1.0579999999999977e-06
aF1.0589999999999978e-06
aF1.059999999999998e-06
aF1.060999999999998e-06
aF1.061999999999998e-06
aF1.0629999999999981e-06
aF1.0639999999999982e-06
aF1.0649999999999983e-06
aF1.0659999999999983e-06
aF1.0669999999999984e-06
aF1.0679999999999985e-06
aF1.0689999999999986e-06
aF1.0699999999999986e-06
aF1.0709999999999987e-06
aF1.0719999999999988e-06
aF1.0729999999999989e-06
aF1.073999999999999e-06
aF1.074999999999999e-06
aF1.075999999999999e-06
aF1.0769999999999992e-06
aF1.0779999999999993e-06
aF1.0789999999999993e-06
aF1.0799999999999994e-06
aF1.0809999999999995e-06
aF1.0819999999999996e-06
aF1.0829999999999996e-06
aF1.0839999999999997e-06
aF1.0849999999999998e-06
aF1.0859999999999999e-06
aF1.087e-06
aF1.088e-06
aF1.089e-06
aF1.0900000000000002e-06
aF1.0910000000000002e-06
aF1.0920000000000003e-06
aF1.0930000000000004e-06
aF1.0940000000000005e-06
aF1.0950000000000005e-06
aF1.0960000000000006e-06
aF1.0970000000000007e-06
aF1.0980000000000008e-06
aF1.0990000000000008e-06
aF1.100000000000001e-06
aF1.101000000000001e-06
aF1.102000000000001e-06
aF1.1030000000000011e-06
aF1.1040000000000012e-06
aF1.1050000000000013e-06
aF1.1060000000000014e-06
aF1.1070000000000014e-06
aF1.1080000000000015e-06
aF1.1090000000000016e-06
aF1.1100000000000017e-06
aF1.1110000000000017e-06
aF1.1120000000000018e-06
aF1.1130000000000019e-06
aF1.114000000000002e-06
aF1.115000000000002e-06
aF1.116000000000002e-06
aF1.1170000000000022e-06
aF1.1180000000000023e-06
aF1.1190000000000023e-06
aF1.1200000000000024e-06
aF1.1210000000000025e-06
aF1.1220000000000026e-06
aF1.1230000000000026e-06
aF1.1240000000000027e-06
aF1.1250000000000028e-06
aF1.1260000000000029e-06
aF1.127000000000003e-06
aF1.128000000000003e-06
aF1.129000000000003e-06
aF1.1300000000000032e-06
aF1.1310000000000032e-06
aF1.1320000000000033e-06
aF1.1330000000000034e-06
aF1.1340000000000035e-06
aF1.1350000000000035e-06
aF1.1360000000000036e-06
aF1.1370000000000037e-06
aF1.1380000000000038e-06
aF1.1390000000000038e-06
aF1.140000000000004e-06
aF1.141000000000004e-06
aF1.142000000000004e-06
aF1.1430000000000041e-06
aF1.1440000000000042e-06
aF1.1450000000000043e-06
aF1.1460000000000044e-06
aF1.1470000000000044e-06
aF1.1480000000000045e-06
aF1.1490000000000046e-06
aF1.1500000000000047e-06
aF1.1510000000000047e-06
aF1.1520000000000048e-06
aF1.1530000000000049e-06
aF1.154000000000005e-06
aF1.155000000000005e-06
aF1.1560000000000051e-06
aF1.1570000000000052e-06
aF1.1580000000000053e-06
aF1.1590000000000053e-06
aF1.1600000000000054e-06
aF1.1610000000000055e-06
aF1.1620000000000056e-06
aF1.1630000000000056e-06
aF1.1640000000000057e-06
aF1.1650000000000058e-06
aF1.1660000000000059e-06
aF1.167000000000006e-06
aF1.168000000000006e-06
aF1.169000000000006e-06
aF1.1700000000000062e-06
aF1.1710000000000062e-06
aF1.1720000000000063e-06
aF1.1730000000000064e-06
aF1.1740000000000065e-06
aF1.1750000000000065e-06
aF1.1760000000000066e-06
aF1.1770000000000067e-06
aF1.1780000000000068e-06
aF1.1790000000000068e-06
aF1.180000000000007e-06
aF1.181000000000007e-06
aF1.182000000000007e-06
aF1.1830000000000071e-06
aF1.1840000000000072e-06
aF1.1850000000000073e-06
aF1.1860000000000074e-06
aF1.1870000000000074e-06
aF1.1880000000000075e-06
aF1.1890000000000076e-06
aF1.1900000000000077e-06
aF1.1910000000000077e-06
aF1.1920000000000078e-06
aF1.1930000000000079e-06
aF1.194000000000008e-06
aF1.195000000000008e-06
aF1.1960000000000081e-06
aF1.1970000000000082e-06
aF1.1980000000000083e-06
aF1.1990000000000083e-06
aF1.2000000000000084e-06
aF1.2010000000000085e-06
aF1.2020000000000086e-06
aF1.2030000000000086e-06
aF1.2040000000000087e-06
aF1.2050000000000088e-06
aF1.2060000000000089e-06
aF1.207000000000009e-06
aF1.208000000000009e-06
aF1.209000000000009e-06
aF1.2100000000000092e-06
aF1.2110000000000092e-06
aF1.2120000000000093e-06
aF1.2130000000000094e-06
aF1.2140000000000095e-06
aF1.2150000000000095e-06
aF1.2160000000000096e-06
aF1.2170000000000097e-06
aF1.2180000000000098e-06
aF1.2190000000000098e-06
aF1.22000000000001e-06
aF1.22100000000001e-06
aF1.22200000000001e-06
aF1.2230000000000101e-06
aF1.2240000000000102e-06
aF1.2250000000000103e-06
aF1.2260000000000104e-06
aF1.2270000000000104e-06
aF1.2280000000000105e-06
aF1.2290000000000106e-06
aF1.2300000000000107e-06
aF1.2310000000000107e-06
aF1.2320000000000108e-06
aF1.233000000000011e-06
aF1.234000000000011e-06
aF1.235000000000011e-06
aF1.2360000000000111e-06
aF1.2370000000000112e-06
aF1.2380000000000113e-06
aF1.2390000000000113e-06
aF1.2400000000000114e-06
aF1.2410000000000115e-06
aF1.2420000000000116e-06
aF1.2430000000000116e-06
aF1.2440000000000117e-06
aF1.2450000000000118e-06
aF1.2460000000000119e-06
aF1.247000000000012e-06
aF1.248000000000012e-06
aF1.249000000000012e-06
aF1.2500000000000122e-06
aF1.2510000000000122e-06
aF1.2520000000000123e-06
aF1.2530000000000124e-06
aF1.2540000000000125e-06
aF1.2550000000000125e-06
aF1.2560000000000126e-06
aF1.2570000000000127e-06
aF1.2580000000000128e-06
aF1.2590000000000128e-06
aF1.260000000000013e-06
aF1.261000000000013e-06
aF1.262000000000013e-06
aF1.2630000000000131e-06
aF1.2640000000000132e-06
aF1.2650000000000133e-06
aF1.2660000000000134e-06
aF1.2670000000000134e-06
aF1.2680000000000135e-06
aF1.2690000000000136e-06
aF1.2700000000000137e-06
aF1.2710000000000138e-06
aF1.2720000000000138e-06
aF1.273000000000014e-06
aF1.274000000000014e-06
aF1.275000000000014e-06
aF1.2760000000000141e-06
aF1.2770000000000142e-06
aF1.2780000000000143e-06
aF1.2790000000000144e-06
aF1.2800000000000144e-06
aF1.2810000000000145e-06
aF1.2820000000000146e-06
aF1.2830000000000147e-06
aF1.2840000000000147e-06
aF1.2850000000000148e-06
aF1.2860000000000149e-06
aF1.287000000000015e-06
aF1.288000000000015e-06
aF1.289000000000015e-06
aF1.2900000000000152e-06
aF1.2910000000000153e-06
aF1.2920000000000153e-06
aF1.2930000000000154e-06
aF1.2940000000000155e-06
aF1.2950000000000156e-06
aF1.2960000000000156e-06
aF1.2970000000000157e-06
aF1.2980000000000158e-06
aF1.2990000000000159e-06
aF1.300000000000016e-06
aF1.301000000000016e-06
aF1.302000000000016e-06
aF1.3030000000000162e-06
aF1.3040000000000162e-06
aF1.3050000000000163e-06
aF1.3060000000000164e-06
aF1.3070000000000165e-06
aF1.3080000000000165e-06
aF1.3090000000000166e-06
aF1.3100000000000167e-06
aF1.3110000000000168e-06
aF1.3120000000000168e-06
aF1.313000000000017e-06
aF1.314000000000017e-06
aF1.315000000000017e-06
aF1.3160000000000171e-06
aF1.3170000000000172e-06
aF1.3180000000000173e-06
aF1.3190000000000174e-06
aF1.3200000000000174e-06
aF1.3210000000000175e-06
aF1.3220000000000176e-06
aF1.3230000000000177e-06
aF1.3240000000000177e-06
aF1.3250000000000178e-06
aF1.3260000000000179e-06
aF1.327000000000018e-06
aF1.328000000000018e-06
aF1.3290000000000181e-06
aF1.3300000000000182e-06
aF1.3310000000000183e-06
aF1.3320000000000183e-06
aF1.3330000000000184e-06
aF1.3340000000000185e-06
aF1.3350000000000186e-06
aF1.3360000000000186e-06
aF1.3370000000000187e-06
aF1.3380000000000188e-06
aF1.3390000000000189e-06
aF1.340000000000019e-06
aF1.341000000000019e-06
aF1.342000000000019e-06
aF1.3430000000000192e-06
aF1.3440000000000192e-06
aF1.3450000000000193e-06
aF1.3460000000000194e-06
aF1.3470000000000195e-06
aF1.3480000000000195e-06
aF1.3490000000000196e-06
aF1.3500000000000197e-06
aF1.3510000000000198e-06
aF1.3520000000000198e-06
aF1.35300000000002e-06
aF1.35400000000002e-06
aF1.35500000000002e-06
aF1.3560000000000201e-06
aF1.3570000000000202e-06
aF1.3580000000000203e-06
aF1.3590000000000204e-06
aF1.3600000000000204e-06
aF1.3610000000000205e-06
aF1.3620000000000206e-06
aF1.3630000000000207e-06
aF1.3640000000000207e-06
aF1.3650000000000208e-06
aF1.3660000000000209e-06
aF1.367000000000021e-06
aF1.368000000000021e-06
aF1.3690000000000211e-06
aF1.3700000000000212e-06
aF1.3710000000000213e-06
aF1.3720000000000213e-06
aF1.3730000000000214e-06
aF1.3740000000000215e-06
aF1.3750000000000216e-06
aF1.3760000000000216e-06
aF1.3770000000000217e-06
aF1.3780000000000218e-06
aF1.3790000000000219e-06
aF1.380000000000022e-06
aF1.381000000000022e-06
aF1.382000000000022e-06
aF1.3830000000000222e-06
aF1.3840000000000222e-06
aF1.3850000000000223e-06
aF1.3860000000000224e-06
aF1.3870000000000225e-06
aF1.3880000000000225e-06
aF1.3890000000000226e-06
aF1.3900000000000227e-06
aF1.3910000000000228e-06
aF1.3920000000000228e-06
aF1.393000000000023e-06
aF1.394000000000023e-06
aF1.395000000000023e-06
aF1.3960000000000231e-06
aF1.3970000000000232e-06
aF1.3980000000000233e-06
aF1.3990000000000234e-06
aF1.4000000000000234e-06
aF1.4010000000000235e-06
aF1.4020000000000236e-06
aF1.4030000000000237e-06
aF1.4040000000000237e-06
aF1.4050000000000238e-06
aF1.4060000000000239e-06
aF1.407000000000024e-06
aF1.408000000000024e-06
aF1.4090000000000241e-06
aF1.4100000000000242e-06
aF1.4110000000000243e-06
aF1.4120000000000243e-06
aF1.4130000000000244e-06
aF1.4140000000000245e-06
aF1.4150000000000246e-06
aF1.4160000000000246e-06
aF1.4170000000000247e-06
aF1.4180000000000248e-06
aF1.4190000000000249e-06
aF1.420000000000025e-06
aF1.421000000000025e-06
aF1.422000000000025e-06
aF1.4230000000000252e-06
aF1.4240000000000252e-06
aF1.4250000000000253e-06
aF1.4260000000000254e-06
aF1.4270000000000255e-06
aF1.4280000000000255e-06
aF1.4290000000000256e-06
aF1.4300000000000257e-06
aF1.4310000000000258e-06
aF1.4320000000000258e-06
aF1.433000000000026e-06
aF1.434000000000026e-06
aF1.435000000000026e-06
aF1.4360000000000261e-06
aF1.4370000000000262e-06
aF1.4380000000000263e-06
aF1.4390000000000264e-06
aF1.4400000000000264e-06
aF1.4410000000000265e-06
aF1.4420000000000266e-06
aF1.4430000000000267e-06
aF1.4440000000000267e-06
aF1.4450000000000268e-06
aF1.446000000000027e-06
aF1.447000000000027e-06
aF1.448000000000027e-06
aF1.4490000000000271e-06
aF1.4500000000000272e-06
aF1.4510000000000273e-06
aF1.4520000000000273e-06
aF1.4530000000000274e-06
aF1.4540000000000275e-06
aF1.4550000000000276e-06
aF1.4560000000000276e-06
aF1.4570000000000277e-06
aF1.4580000000000278e-06
aF1.4590000000000279e-06
aF1.460000000000028e-06
aF1.461000000000028e-06
aF1.462000000000028e-06
aF1.4630000000000282e-06
aF1.4640000000000283e-06
aF1.4650000000000283e-06
aF1.4660000000000284e-06
aF1.4670000000000285e-06
aF1.4680000000000286e-06
aF1.4690000000000286e-06
aF1.4700000000000287e-06
aF1.4710000000000288e-06
aF1.4720000000000289e-06
aF1.473000000000029e-06
aF1.474000000000029e-06
aF1.475000000000029e-06
aF1.4760000000000292e-06
aF1.4770000000000292e-06
aF1.4780000000000293e-06
aF1.4790000000000294e-06
aF1.4800000000000295e-06
aF1.4810000000000295e-06
aF1.4820000000000296e-06
aF1.4830000000000297e-06
aF1.4840000000000298e-06
aF1.4850000000000298e-06
aF1.48600000000003e-06
aF1.48700000000003e-06
aF1.48800000000003e-06
aF1.4890000000000301e-06
aF1.4900000000000302e-06
aF1.4910000000000303e-06
aF1.4920000000000304e-06
aF1.4930000000000304e-06
aF1.4940000000000305e-06
aF1.4950000000000306e-06
aF1.4960000000000307e-06
aF1.4970000000000307e-06
aF1.4980000000000308e-06
aF1.4990000000000309e-06
aF1.500000000000031e-06
aF1.501000000000031e-06
aF1.502000000000031e-06
aF1.5030000000000312e-06
aF1.5040000000000313e-06
aF1.5050000000000313e-06
aF1.5060000000000314e-06
aF1.5070000000000315e-06
aF1.5080000000000316e-06
aF1.5090000000000316e-06
aF1.5100000000000317e-06
aF1.5110000000000318e-06
aF1.5120000000000319e-06
aF1.513000000000032e-06
aF1.514000000000032e-06
aF1.515000000000032e-06
aF1.5160000000000322e-06
aF1.5170000000000322e-06
aF1.5180000000000323e-06
aF1.5190000000000324e-06
aF1.5200000000000325e-06
aF1.5210000000000325e-06
aF1.5220000000000326e-06
aF1.5230000000000327e-06
aF1.5240000000000328e-06
aF1.5250000000000328e-06
aF1.526000000000033e-06
aF1.527000000000033e-06
aF1.528000000000033e-06
aF1.5290000000000331e-06
aF1.5300000000000332e-06
aF1.5310000000000333e-06
aF1.5320000000000334e-06
aF1.5330000000000334e-06
aF1.5340000000000335e-06
aF1.5350000000000336e-06
aF1.5360000000000337e-06
aF1.5370000000000337e-06
aF1.5380000000000338e-06
aF1.5390000000000339e-06
aF1.540000000000034e-06
aF1.541000000000034e-06
aF1.5420000000000341e-06
aF1.5430000000000342e-06
aF1.5440000000000343e-06
aF1.5450000000000343e-06
aF1.5460000000000344e-06
aF1.5470000000000345e-06
aF1.5480000000000346e-06
aF1.5490000000000346e-06
aF1.5500000000000347e-06
aF1.5510000000000348e-06
aF1.5520000000000349e-06
aF1.553000000000035e-06
aF1.554000000000035e-06
aF1.555000000000035e-06
aF1.5560000000000352e-06
aF1.5570000000000352e-06
aF1.5580000000000353e-06
aF1.5590000000000354e-06
aF1.5600000000000355e-06
aF1.5610000000000355e-06
aF1.5620000000000356e-06
aF1.5630000000000357e-06
aF1.5640000000000358e-06
aF1.5650000000000358e-06
aF1.566000000000036e-06
aF1.567000000000036e-06
aF1.568000000000036e-06
aF1.5690000000000361e-06
aF1.5700000000000362e-06
aF1.5710000000000363e-06
aF1.5720000000000364e-06
aF1.5730000000000364e-06
aF1.5740000000000365e-06
aF1.5750000000000366e-06
aF1.5760000000000367e-06
aF1.5770000000000367e-06
aF1.5780000000000368e-06
aF1.5790000000000369e-06
aF1.580000000000037e-06
aF1.581000000000037e-06
aF1.5820000000000371e-06
aF1.5830000000000372e-06
aF1.5840000000000373e-06
aF1.5850000000000373e-06
aF1.5860000000000374e-06
aF1.5870000000000375e-06
aF1.5880000000000376e-06
aF1.5890000000000376e-06
aF1.5900000000000377e-06
aF1.5910000000000378e-06
aF1.5920000000000379e-06
aF1.593000000000038e-06
aF1.594000000000038e-06
aF1.595000000000038e-06
aF1.5960000000000382e-06
aF1.5970000000000382e-06
aF1.5980000000000383e-06
aF1.5990000000000384e-06
aF1.6000000000000385e-06
aF1.6010000000000385e-06
aF1.6020000000000386e-06
aF1.6030000000000387e-06
aF1.6040000000000388e-06
aF1.6050000000000388e-06
aF1.606000000000039e-06
aF1.607000000000039e-06
aF1.608000000000039e-06
aF1.6090000000000391e-06
aF1.6100000000000392e-06
aF1.6110000000000393e-06
aF1.6120000000000394e-06
aF1.6130000000000394e-06
aF1.6140000000000395e-06
aF1.6150000000000396e-06
aF1.6160000000000397e-06
aF1.6170000000000397e-06
aF1.6180000000000398e-06
aF1.61900000000004e-06
aF1.62000000000004e-06
aF1.62100000000004e-06
aF1.6220000000000401e-06
aF1.6230000000000402e-06
aF1.6240000000000403e-06
aF1.6250000000000403e-06
aF1.6260000000000404e-06
aF1.6270000000000405e-06
aF1.6280000000000406e-06
aF1.6290000000000406e-06
aF1.6300000000000407e-06
aF1.6310000000000408e-06
aF1.6320000000000409e-06
aF1.633000000000041e-06
aF1.634000000000041e-06
aF1.635000000000041e-06
aF1.6360000000000412e-06
aF1.6370000000000412e-06
aF1.6380000000000413e-06
aF1.6390000000000414e-06
aF1.6400000000000415e-06
aF1.6410000000000415e-06
aF1.6420000000000416e-06
aF1.6430000000000417e-06
aF1.6440000000000418e-06
aF1.6450000000000418e-06
aF1.646000000000042e-06
aF1.647000000000042e-06
aF1.648000000000042e-06
aF1.6490000000000421e-06
aF1.6500000000000422e-06
aF1.6510000000000423e-06
aF1.6520000000000424e-06
aF1.6530000000000424e-06
aF1.6540000000000425e-06
aF1.6550000000000426e-06
aF1.6560000000000427e-06
aF1.6570000000000427e-06
aF1.6580000000000428e-06
aF1.659000000000043e-06
aF1.660000000000043e-06
aF1.661000000000043e-06
aF1.6620000000000431e-06
aF1.6630000000000432e-06
aF1.6640000000000433e-06
aF1.6650000000000434e-06
aF1.6660000000000434e-06
aF1.6670000000000435e-06
aF1.6680000000000436e-06
aF1.6690000000000437e-06
aF1.6700000000000437e-06
aF1.6710000000000438e-06
aF1.6720000000000439e-06
aF1.673000000000044e-06
aF1.674000000000044e-06
aF1.675000000000044e-06
aF1.6760000000000442e-06
aF1.6770000000000443e-06
aF1.6780000000000443e-06
aF1.6790000000000444e-06
aF1.6800000000000445e-06
aF1.6810000000000446e-06
aF1.6820000000000446e-06
aF1.6830000000000447e-06
aF1.6840000000000448e-06
aF1.6850000000000449e-06
aF1.686000000000045e-06
aF1.687000000000045e-06
aF1.688000000000045e-06
aF1.6890000000000452e-06
aF1.6900000000000452e-06
aF1.6910000000000453e-06
aF1.6920000000000454e-06
aF1.6930000000000455e-06
aF1.6940000000000455e-06
aF1.6950000000000456e-06
aF1.6960000000000457e-06
aF1.6970000000000458e-06
aF1.6980000000000458e-06
aF1.699000000000046e-06
aF1.700000000000046e-06
aF1.701000000000046e-06
aF1.7020000000000461e-06
aF1.7030000000000462e-06
aF1.7040000000000463e-06
aF1.7050000000000464e-06
aF1.7060000000000464e-06
aF1.7070000000000465e-06
aF1.7080000000000466e-06
aF1.7090000000000467e-06
aF1.7100000000000467e-06
aF1.7110000000000468e-06
aF1.7120000000000469e-06
aF1.713000000000047e-06
aF1.714000000000047e-06
aF1.7150000000000471e-06
aF1.7160000000000472e-06
aF1.7170000000000473e-06
aF1.7180000000000473e-06
aF1.7190000000000474e-06
aF1.7200000000000475e-06
aF1.7210000000000476e-06
aF1.7220000000000476e-06
aF1.7230000000000477e-06
aF1.7240000000000478e-06
aF1.7250000000000479e-06
aF1.726000000000048e-06
aF1.727000000000048e-06
aF1.728000000000048e-06
aF1.7290000000000482e-06
aF1.7300000000000482e-06
aF1.7310000000000483e-06
aF1.7320000000000484e-06
aF1.7330000000000485e-06
aF1.7340000000000485e-06
aF1.7350000000000486e-06
aF1.7360000000000487e-06
aF1.7370000000000488e-06
aF1.7380000000000488e-06
aF1.739000000000049e-06
aF1.740000000000049e-06
aF1.741000000000049e-06
aF1.7420000000000491e-06
aF1.7430000000000492e-06
aF1.7440000000000493e-06
aF1.7450000000000494e-06
aF1.7460000000000494e-06
aF1.7470000000000495e-06
aF1.7480000000000496e-06
aF1.7490000000000497e-06
aF1.7500000000000497e-06
aF1.7510000000000498e-06
aF1.7520000000000499e-06
aF1.75300000000005e-06
aF1.75400000000005e-06
aF1.7550000000000501e-06
aF1.7560000000000502e-06
aF1.7570000000000503e-06
aF1.7580000000000503e-06
aF1.7590000000000504e-06
aF1.7600000000000505e-06
aF1.7610000000000506e-06
aF1.7620000000000506e-06
aF1.7630000000000507e-06
aF1.7640000000000508e-06
aF1.7650000000000509e-06
aF1.766000000000051e-06
aF1.767000000000051e-06
aF1.768000000000051e-06
aF1.7690000000000512e-06
aF1.7700000000000512e-06
aF1.7710000000000513e-06
aF1.7720000000000514e-06
aF1.7730000000000515e-06
aF1.7740000000000515e-06
aF1.7750000000000516e-06
aF1.7760000000000517e-06
aF1.7770000000000518e-06
aF1.7780000000000518e-06
aF1.779000000000052e-06
aF1.780000000000052e-06
aF1.781000000000052e-06
aF1.7820000000000521e-06
aF1.7830000000000522e-06
aF1.7840000000000523e-06
aF1.7850000000000524e-06
aF1.7860000000000524e-06
aF1.7870000000000525e-06
aF1.7880000000000526e-06
aF1.7890000000000527e-06
aF1.7900000000000527e-06
aF1.7910000000000528e-06
aF1.7920000000000529e-06
aF1.793000000000053e-06
aF1.794000000000053e-06
aF1.7950000000000531e-06
aF1.7960000000000532e-06
aF1.7970000000000533e-06
aF1.7980000000000533e-06
aF1.7990000000000534e-06
aF1.8000000000000535e-06
aF1.8010000000000536e-06
aF1.8020000000000536e-06
aF1.8030000000000537e-06
aF1.8040000000000538e-06
aF1.8050000000000539e-06
aF1.806000000000054e-06
aF1.807000000000054e-06
aF1.808000000000054e-06
aF1.8090000000000542e-06
aF1.8100000000000542e-06
aF1.8110000000000543e-06
aF1.8120000000000544e-06
aF1.8130000000000545e-06
aF1.8140000000000545e-06
aF1.8150000000000546e-06
aF1.8160000000000547e-06
aF1.8170000000000548e-06
aF1.8180000000000548e-06
aF1.819000000000055e-06
aF1.820000000000055e-06
aF1.821000000000055e-06
aF1.8220000000000551e-06
aF1.8230000000000552e-06
aF1.8240000000000553e-06
aF1.8250000000000554e-06
aF1.8260000000000554e-06
aF1.8270000000000555e-06
aF1.8280000000000556e-06
aF1.8290000000000557e-06
aF1.8300000000000557e-06
aF1.8310000000000558e-06
aF1.832000000000056e-06
aF1.833000000000056e-06
aF1.834000000000056e-06
aF1.8350000000000561e-06
aF1.8360000000000562e-06
aF1.8370000000000563e-06
aF1.8380000000000563e-06
aF1.8390000000000564e-06
aF1.8400000000000565e-06
aF1.8410000000000566e-06
aF1.8420000000000566e-06
aF1.8430000000000567e-06
aF1.8440000000000568e-06
aF1.8450000000000569e-06
aF1.846000000000057e-06
aF1.847000000000057e-06
aF1.848000000000057e-06
aF1.8490000000000572e-06
aF1.8500000000000572e-06
aF1.8510000000000573e-06
aF1.8520000000000574e-06
aF1.8530000000000575e-06
aF1.8540000000000576e-06
aF1.8550000000000576e-06
aF1.8560000000000577e-06
aF1.8570000000000578e-06
aF1.8580000000000579e-06
aF1.859000000000058e-06
aF1.860000000000058e-06
aF1.861000000000058e-06
aF1.8620000000000582e-06
aF1.8630000000000582e-06
aF1.8640000000000583e-06
aF1.8650000000000584e-06
aF1.8660000000000585e-06
aF1.8670000000000585e-06
aF1.8680000000000586e-06
aF1.8690000000000587e-06
aF1.8700000000000588e-06
aF1.8710000000000588e-06
aF1.872000000000059e-06
aF1.873000000000059e-06
aF1.874000000000059e-06
aF1.8750000000000591e-06
aF1.8760000000000592e-06
aF1.8770000000000593e-06
aF1.8780000000000594e-06
aF1.8790000000000594e-06
aF1.8800000000000595e-06
aF1.8810000000000596e-06
aF1.8820000000000597e-06
aF1.8830000000000597e-06
aF1.8840000000000598e-06
aF1.8850000000000599e-06
aF1.88600000000006e-06
aF1.88700000000006e-06
aF1.88800000000006e-06
aF1.8890000000000602e-06
aF1.8900000000000603e-06
aF1.8910000000000603e-06
aF1.8920000000000604e-06
aF1.8930000000000605e-06
aF1.8940000000000606e-06
aF1.8950000000000606e-06
aF1.8960000000000607e-06
aF1.8970000000000608e-06
aF1.8980000000000609e-06
aF1.899000000000061e-06
aF1.900000000000061e-06
aF1.901000000000061e-06
aF1.9020000000000612e-06
aF1.9030000000000612e-06
aF1.9040000000000613e-06
aF1.9050000000000614e-06
aF1.9060000000000615e-06
aF1.9070000000000615e-06
aF1.9080000000000616e-06
aF1.9090000000000617e-06
aF1.9100000000000618e-06
aF1.911000000000062e-06
aF1.912000000000062e-06
aF1.913000000000062e-06
aF1.914000000000062e-06
aF1.915000000000062e-06
aF1.916000000000062e-06
aF1.9170000000000623e-06
aF1.9180000000000624e-06
aF1.9190000000000624e-06
aF1.9200000000000625e-06
aF1.9210000000000626e-06
aF1.9220000000000627e-06
aF1.9230000000000627e-06
aF1.924000000000063e-06
aF1.925000000000063e-06
aF1.926000000000063e-06
aF1.927000000000063e-06
aF1.928000000000063e-06
aF1.929000000000063e-06
aF1.9300000000000633e-06
aF1.9310000000000633e-06
aF1.9320000000000634e-06
aF1.9330000000000635e-06
aF1.9340000000000636e-06
aF1.9350000000000636e-06
aF1.9360000000000637e-06
aF1.9370000000000638e-06
aF1.938000000000064e-06
aF1.939000000000064e-06
aF1.940000000000064e-06
aF1.941000000000064e-06
aF1.942000000000064e-06
aF1.9430000000000642e-06
aF1.9440000000000643e-06
aF1.9450000000000644e-06
aF1.9460000000000645e-06
aF1.9470000000000645e-06
aF1.9480000000000646e-06
aF1.9490000000000647e-06
aF1.9500000000000648e-06
aF1.951000000000065e-06
aF1.952000000000065e-06
aF1.953000000000065e-06
aF1.954000000000065e-06
aF1.955000000000065e-06
aF1.9560000000000652e-06
aF1.9570000000000653e-06
aF1.9580000000000654e-06
aF1.9590000000000654e-06
aF1.9600000000000655e-06
aF1.9610000000000656e-06
aF1.9620000000000657e-06
aF1.9630000000000657e-06
aF1.964000000000066e-06
aF1.965000000000066e-06
aF1.966000000000066e-06
aF1.967000000000066e-06
aF1.968000000000066e-06
aF1.969000000000066e-06
aF1.9700000000000663e-06
aF1.9710000000000663e-06
aF1.9720000000000664e-06
aF1.9730000000000665e-06
aF1.9740000000000666e-06
aF1.9750000000000666e-06
aF1.9760000000000667e-06
aF1.977000000000067e-06
aF1.978000000000067e-06
aF1.979000000000067e-06
aF1.980000000000067e-06
aF1.981000000000067e-06
aF1.982000000000067e-06
aF1.9830000000000672e-06
aF1.9840000000000673e-06
aF1.9850000000000674e-06
aF1.9860000000000675e-06
aF1.9870000000000675e-06
aF1.9880000000000676e-06
aF1.9890000000000677e-06
aF1.9900000000000678e-06
aF1.991000000000068e-06
aF1.992000000000068e-06
aF1.993000000000068e-06
aF1.994000000000068e-06
aF1.995000000000068e-06
aF1.9960000000000682e-06
aF1.9970000000000683e-06
aF1.9980000000000684e-06
aF1.9990000000000684e-06
aF2.0000000000000685e-06
aF2.0010000000000686e-06
aF2.0020000000000687e-06
aF2.0030000000000687e-06
aF2.004000000000069e-06
aF2.005000000000069e-06
aF2.006000000000069e-06
aF2.007000000000069e-06
aF2.008000000000069e-06
aF2.009000000000069e-06
aF2.0100000000000693e-06
aF2.0110000000000693e-06
aF2.0120000000000694e-06
aF2.0130000000000695e-06
aF2.0140000000000696e-06
aF2.0150000000000696e-06
aF2.0160000000000697e-06
aF2.01700000000007e-06
aF2.01800000000007e-06
aF2.01900000000007e-06
aF2.02000000000007e-06
aF2.02100000000007e-06
aF2.02200000000007e-06
aF2.0230000000000702e-06
aF2.0240000000000703e-06
aF2.0250000000000704e-06
aF2.0260000000000705e-06
aF2.0270000000000705e-06
aF2.0280000000000706e-06
aF2.0290000000000707e-06
aF2.0300000000000708e-06
aF2.031000000000071e-06
aF2.032000000000071e-06
aF2.033000000000071e-06
aF2.034000000000071e-06
aF2.035000000000071e-06
aF2.0360000000000712e-06
aF2.0370000000000713e-06
aF2.0380000000000714e-06
aF2.0390000000000714e-06
aF2.0400000000000715e-06
aF2.0410000000000716e-06
aF2.0420000000000717e-06
aF2.0430000000000717e-06
aF2.044000000000072e-06
aF2.045000000000072e-06
aF2.046000000000072e-06
aF2.047000000000072e-06
aF2.048000000000072e-06
a.