(lp0
I0
aF1e-08
aF2e-08
aF3.0000000000000004e-08
aF4e-08
aF5e-08
aF6e-08
aF6.999999999999999e-08
aF7.999999999999999e-08
aF8.999999999999999e-08
aF9.999999999999998e-08
aF1.0999999999999998e-07
aF1.2e-07
aF1.3e-07
aF1.4e-07
aF1.5000000000000002e-07
aF1.6000000000000003e-07
aF1.7000000000000004e-07
aF1.8000000000000005e-07
aF1.9000000000000006e-07
aF2.0000000000000007e-07
aF2.1000000000000008e-07
aF2.200000000000001e-07
aF2.300000000000001e-07
aF2.400000000000001e-07
aF2.500000000000001e-07
aF2.600000000000001e-07
aF2.700000000000001e-07
aF2.800000000000001e-07
aF2.9000000000000014e-07
aF3.0000000000000015e-07
aF3.1000000000000016e-07
aF3.2000000000000017e-07
aF3.300000000000002e-07
aF3.400000000000002e-07
aF3.500000000000002e-07
aF3.600000000000002e-07
aF3.700000000000002e-07
aF3.800000000000002e-07
aF3.9000000000000024e-07
aF4.0000000000000025e-07
aF4.1000000000000026e-07
aF4.2000000000000027e-07
aF4.300000000000003e-07
aF4.400000000000003e-07
aF4.500000000000003e-07
aF4.600000000000003e-07
aF4.700000000000003e-07
aF4.800000000000003e-07
aF4.900000000000003e-07
aF5.000000000000003e-07
aF5.100000000000003e-07
aF5.200000000000003e-07
aF5.300000000000003e-07
aF5.400000000000003e-07
aF5.500000000000003e-07
aF5.600000000000004e-07
aF5.700000000000004e-07
aF5.800000000000004e-07
aF5.900000000000004e-07
aF6.000000000000004e-07
aF6.100000000000004e-07
aF6.200000000000004e-07
aF6.300000000000004e-07
aF6.400000000000004e-07
aF6.500000000000004e-07
aF6.600000000000005e-07
aF6.700000000000005e-07
aF6.800000000000005e-07
aF6.900000000000005e-07
aF7.000000000000005e-07
aF7.100000000000005e-07
aF7.200000000000005e-07
aF7.300000000000005e-07
aF7.400000000000005e-07
aF7.500000000000005e-07
aF7.600000000000006e-07
aF7.700000000000006e-07
aF7.800000000000006e-07
aF7.900000000000006e-07
aF8.000000000000006e-07
aF8.100000000000006e-07
aF8.200000000000006e-07
aF8.300000000000006e-07
aF8.400000000000006e-07
aF8.500000000000006e-07
aF8.600000000000007e-07
aF8.700000000000007e-07
aF8.800000000000007e-07
aF8.900000000000007e-07
aF9.000000000000007e-07
aF9.100000000000007e-07
aF9.200000000000007e-07
aF9.300000000000007e-07
aF9.400000000000007e-07
aF9.500000000000008e-07
aF9.600000000000008e-07
aF9.700000000000007e-07
aF9.800000000000006e-07
aF9.900000000000005e-07
aF1.0000000000000004e-06
aF1.0100000000000003e-06
aF1.0200000000000002e-06
aF1.03e-06
aF1.04e-06
aF1.05e-06
aF1.0599999999999998e-06
aF1.0699999999999997e-06
aF1.0799999999999996e-06
aF1.0899999999999995e-06
aF1.0999999999999994e-06
aF1.1099999999999993e-06
aF1.1199999999999992e-06
aF1.1299999999999991e-06
aF1.139999999999999e-06
aF1.149999999999999e-06
aF1.1599999999999988e-06
aF1.1699999999999988e-06
aF1.1799999999999987e-06
aF1.1899999999999986e-06
aF1.1999999999999985e-06
aF1.2099999999999984e-06
aF1.2199999999999983e-06
aF1.2299999999999982e-06
aF1.239999999999998e-06
aF1.249999999999998e-06
aF1.2599999999999979e-06
aF1.2699999999999978e-06
aF1.2799999999999977e-06
aF1.2899999999999976e-06
aF1.2999999999999975e-06
aF1.3099999999999974e-06
aF1.3199999999999973e-06
aF1.3299999999999972e-06
aF1.3399999999999971e-06
aF1.349999999999997e-06
aF1.359999999999997e-06
aF1.3699999999999968e-06
aF1.3799999999999967e-06
aF1.3899999999999966e-06
aF1.3999999999999965e-06
aF1.4099999999999965e-06
aF1.4199999999999964e-06
aF1.4299999999999963e-06
aF1.4399999999999962e-06
aF1.449999999999996e-06
aF1.459999999999996e-06
aF1.4699999999999959e-06
aF1.4799999999999958e-06
aF1.4899999999999957e-06
aF1.4999999999999956e-06
aF1.5099999999999955e-06
aF1.5199999999999954e-06
aF1.5299999999999953e-06
aF1.5399999999999952e-06
aF1.5499999999999951e-06
aF1.559999999999995e-06
aF1.569999999999995e-06
aF1.5799999999999948e-06
aF1.5899999999999947e-06
aF1.5999999999999946e-06
aF1.6099999999999945e-06
aF1.6199999999999944e-06
aF1.6299999999999943e-06
aF1.6399999999999943e-06
aF1.6499999999999942e-06
aF1.659999999999994e-06
aF1.669999999999994e-06
aF1.6799999999999939e-06
aF1.6899999999999938e-06
aF1.6999999999999937e-06
aF1.7099999999999936e-06
aF1.7199999999999935e-06
aF1.7299999999999934e-06
aF1.7399999999999933e-06
aF1.7499999999999932e-06
aF1.759999999999993e-06
aF1.769999999999993e-06
aF1.779999999999993e-06
aF1.7899999999999928e-06
aF1.7999999999999927e-06
aF1.8099999999999926e-06
aF1.8199999999999925e-06
aF1.8299999999999924e-06
aF1.8399999999999923e-06
aF1.8499999999999922e-06
aF1.8599999999999921e-06
aF1.869999999999992e-06
aF1.879999999999992e-06
aF1.8899999999999919e-06
aF1.8999999999999918e-06
aF1.909999999999992e-06
aF1.9199999999999918e-06
aF1.9299999999999917e-06
aF1.9399999999999916e-06
aF1.9499999999999915e-06
aF1.9599999999999914e-06
aF1.9699999999999913e-06
aF1.979999999999991e-06
aF1.989999999999991e-06
aF1.999999999999991e-06
aF2.009999999999991e-06
aF2.019999999999991e-06
aF2.0299999999999907e-06
aF2.0399999999999906e-06
aF2.0499999999999905e-06
aF2.0599999999999904e-06
aF2.0699999999999903e-06
aF2.0799999999999902e-06
aF2.08999999999999e-06
aF2.09999999999999e-06
aF2.10999999999999e-06
aF2.11999999999999e-06
aF2.1299999999999898e-06
aF2.1399999999999897e-06
aF2.1499999999999896e-06
aF2.1599999999999895e-06
aF2.1699999999999894e-06
aF2.1799999999999893e-06
aF2.189999999999989e-06
aF2.199999999999989e-06
aF2.209999999999989e-06
aF2.219999999999989e-06
aF2.229999999999989e-06
aF2.2399999999999887e-06
aF2.2499999999999886e-06
aF2.2599999999999885e-06
aF2.2699999999999884e-06
aF2.2799999999999883e-06
aF2.2899999999999882e-06
aF2.299999999999988e-06
aF2.309999999999988e-06
aF2.319999999999988e-06
aF2.329999999999988e-06
aF2.3399999999999878e-06
aF2.3499999999999877e-06
aF2.3599999999999876e-06
aF2.3699999999999875e-06
aF2.3799999999999874e-06
aF2.3899999999999873e-06
aF2.399999999999987e-06
aF2.409999999999987e-06
aF2.419999999999987e-06
aF2.429999999999987e-06
aF2.439999999999987e-06
aF2.4499999999999867e-06
aF2.4599999999999866e-06
aF2.4699999999999865e-06
aF2.4799999999999864e-06
aF2.4899999999999863e-06
aF2.4999999999999862e-06
aF2.509999999999986e-06
aF2.519999999999986e-06
aF2.529999999999986e-06
aF2.539999999999986e-06
aF2.5499999999999857e-06
aF2.5599999999999857e-06
aF2.5699999999999856e-06
aF2.5799999999999855e-06
aF2.5899999999999854e-06
aF2.5999999999999853e-06
aF2.609999999999985e-06
aF2.619999999999985e-06
aF2.629999999999985e-06
aF2.639999999999985e-06
aF2.649999999999985e-06
aF2.6599999999999847e-06
aF2.6699999999999846e-06
aF2.6799999999999845e-06
aF2.6899999999999844e-06
aF2.6999999999999843e-06
aF2.7099999999999842e-06
aF2.719999999999984e-06
aF2.729999999999984e-06
aF2.739999999999984e-06
aF2.749999999999984e-06
aF2.7599999999999837e-06
aF2.7699999999999836e-06
aF2.7799999999999835e-06
aF2.7899999999999835e-06
aF2.7999999999999834e-06
aF2.8099999999999833e-06
aF2.819999999999983e-06
aF2.829999999999983e-06
aF2.839999999999983e-06
aF2.849999999999983e-06
aF2.8599999999999828e-06
aF2.8699999999999827e-06
aF2.8799999999999826e-06
aF2.8899999999999825e-06
aF2.8999999999999824e-06
aF2.9099999999999823e-06
aF2.919999999999982e-06
aF2.929999999999982e-06
aF2.939999999999982e-06
aF2.949999999999982e-06
aF2.959999999999982e-06
aF2.9699999999999817e-06
aF2.9799999999999816e-06
aF2.9899999999999815e-06
aF2.9999999999999814e-06
aF3.0099999999999813e-06
aF3.0199999999999812e-06
aF3.029999999999981e-06
aF3.039999999999981e-06
aF3.049999999999981e-06
aF3.059999999999981e-06
aF3.0699999999999808e-06
aF3.0799999999999807e-06
aF3.0899999999999806e-06
aF3.0999999999999805e-06
aF3.1099999999999804e-06
aF3.1199999999999803e-06
aF3.12999999999998e-06
aF3.13999999999998e-06
aF3.14999999999998e-06
aF3.15999999999998e-06
aF3.16999999999998e-06
aF3.1799999999999797e-06
aF3.1899999999999796e-06
aF3.1999999999999795e-06
aF3.2099999999999794e-06
aF3.2199999999999793e-06
aF3.2299999999999792e-06
aF3.239999999999979e-06
aF3.249999999999979e-06
aF3.259999999999979e-06
aF3.269999999999979e-06
aF3.2799999999999788e-06
aF3.2899999999999787e-06
aF3.2999999999999786e-06
aF3.3099999999999785e-06
aF3.3199999999999784e-06
aF3.3299999999999783e-06
aF3.339999999999978e-06
aF3.349999999999978e-06
aF3.359999999999978e-06
aF3.369999999999978e-06
aF3.379999999999978e-06
aF3.3899999999999777e-06
aF3.3999999999999776e-06
aF3.4099999999999775e-06
aF3.4199999999999774e-06
aF3.4299999999999773e-06
aF3.4399999999999772e-06
aF3.449999999999977e-06
aF3.459999999999977e-06
aF3.469999999999977e-06
aF3.479999999999977e-06
aF3.4899999999999767e-06
aF3.4999999999999767e-06
aF3.5099999999999766e-06
aF3.5199999999999765e-06
aF3.5299999999999764e-06
aF3.5399999999999763e-06
aF3.549999999999976e-06
aF3.559999999999976e-06
aF3.569999999999976e-06
aF3.579999999999976e-06
aF3.589999999999976e-06
aF3.5999999999999757e-06
aF3.6099999999999756e-06
aF3.6199999999999755e-06
aF3.6299999999999754e-06
aF3.6399999999999753e-06
aF3.6499999999999752e-06
aF3.659999999999975e-06
aF3.669999999999975e-06
aF3.679999999999975e-06
aF3.689999999999975e-06
aF3.6999999999999747e-06
aF3.7099999999999746e-06
aF3.7199999999999745e-06
aF3.7299999999999745e-06
aF3.7399999999999744e-06
aF3.7499999999999743e-06
aF3.759999999999974e-06
aF3.769999999999974e-06
aF3.779999999999974e-06
aF3.789999999999974e-06
aF3.7999999999999738e-06
aF3.8099999999999737e-06
aF3.819999999999974e-06
aF3.8299999999999735e-06
aF3.839999999999973e-06
aF3.849999999999973e-06
aF3.859999999999973e-06
aF3.869999999999973e-06
aF3.879999999999973e-06
aF3.889999999999973e-06
aF3.899999999999973e-06
aF3.909999999999973e-06
aF3.919999999999973e-06
aF3.9299999999999725e-06
aF3.9399999999999724e-06
aF3.949999999999972e-06
aF3.959999999999972e-06
aF3.969999999999972e-06
aF3.979999999999972e-06
aF3.989999999999972e-06
aF3.999999999999972e-06
aF4.009999999999972e-06
aF4.019999999999972e-06
aF4.029999999999972e-06
aF4.0399999999999715e-06
aF4.049999999999971e-06
aF4.059999999999971e-06
aF4.069999999999971e-06
aF4.079999999999971e-06
aF4.089999999999971e-06
aF4.099999999999971e-06
aF4.109999999999971e-06
aF4.119999999999971e-06
aF4.129999999999971e-06
aF4.1399999999999705e-06
aF4.1499999999999704e-06
aF4.15999999999997e-06
aF4.16999999999997e-06
aF4.17999999999997e-06
aF4.18999999999997e-06
aF4.19999999999997e-06
aF4.20999999999997e-06
aF4.21999999999997e-06
aF4.22999999999997e-06
aF4.2399999999999696e-06
aF4.2499999999999695e-06
aF4.259999999999969e-06
aF4.269999999999969e-06
aF4.279999999999969e-06
aF4.289999999999969e-06
aF4.299999999999969e-06
aF4.309999999999969e-06
aF4.319999999999969e-06
aF4.329999999999969e-06
aF4.339999999999969e-06
aF4.3499999999999685e-06
aF4.359999999999968e-06
aF4.369999999999968e-06
aF4.379999999999968e-06
aF4.389999999999968e-06
aF4.399999999999968e-06
aF4.409999999999968e-06
aF4.419999999999968e-06
aF4.429999999999968e-06
aF4.439999999999968e-06
aF4.4499999999999676e-06
aF4.4599999999999675e-06
aF4.469999999999967e-06
aF4.479999999999967e-06
aF4.489999999999967e-06
aF4.499999999999967e-06
aF4.509999999999967e-06
aF4.519999999999967e-06
aF4.529999999999967e-06
aF4.539999999999967e-06
aF4.549999999999967e-06
aF4.5599999999999665e-06
aF4.569999999999966e-06
aF4.579999999999966e-06
aF4.589999999999966e-06
aF4.599999999999966e-06
aF4.609999999999966e-06
aF4.619999999999966e-06
aF4.629999999999966e-06
aF4.639999999999966e-06
aF4.649999999999966e-06
aF4.6599999999999655e-06
aF4.6699999999999655e-06
aF4.679999999999965e-06
aF4.689999999999965e-06
aF4.699999999999965e-06
aF4.709999999999965e-06
aF4.719999999999965e-06
aF4.729999999999965e-06
aF4.739999999999965e-06
aF4.749999999999965e-06
aF4.759999999999965e-06
aF4.7699999999999645e-06
aF4.779999999999964e-06
aF4.789999999999964e-06
aF4.799999999999964e-06
aF4.809999999999964e-06
aF4.819999999999964e-06
aF4.829999999999964e-06
aF4.839999999999964e-06
aF4.849999999999964e-06
aF4.859999999999964e-06
aF4.8699999999999635e-06
aF4.8799999999999634e-06
aF4.889999999999963e-06
aF4.899999999999963e-06
aF4.909999999999963e-06
aF4.919999999999963e-06
aF4.929999999999963e-06
aF4.939999999999963e-06
aF4.949999999999963e-06
aF4.959999999999963e-06
aF4.969999999999963e-06
aF4.9799999999999625e-06
aF4.989999999999962e-06
aF4.999999999999962e-06
aF5.009999999999962e-06
aF5.019999999999962e-06
aF5.029999999999962e-06
aF5.039999999999962e-06
aF5.049999999999962e-06
aF5.059999999999962e-06
aF5.069999999999962e-06
aF5.0799999999999615e-06
aF5.0899999999999614e-06
aF5.099999999999961e-06
aF5.109999999999961e-06
aF5.119999999999961e-06
aF5.129999999999961e-06
aF5.139999999999961e-06
aF5.149999999999961e-06
aF5.159999999999961e-06
aF5.169999999999961e-06
aF5.1799999999999606e-06
aF5.1899999999999605e-06
aF5.19999999999996e-06
aF5.20999999999996e-06
aF5.21999999999996e-06
aF5.22999999999996e-06
aF5.23999999999996e-06
aF5.24999999999996e-06
aF5.25999999999996e-06
aF5.26999999999996e-06
aF5.27999999999996e-06
aF5.2899999999999595e-06
aF5.299999999999959e-06
aF5.309999999999959e-06
aF5.319999999999959e-06
aF5.329999999999959e-06
aF5.339999999999959e-06
aF5.349999999999959e-06
aF5.359999999999959e-06
aF5.369999999999959e-06
aF5.379999999999959e-06
aF5.3899999999999586e-06
aF5.3999999999999585e-06
aF5.409999999999958e-06
aF5.419999999999958e-06
aF5.429999999999958e-06
aF5.439999999999958e-06
aF5.449999999999958e-06
aF5.459999999999958e-06
aF5.469999999999958e-06
aF5.479999999999958e-06
aF5.489999999999958e-06
aF5.4999999999999575e-06
aF5.509999999999957e-06
aF5.519999999999957e-06
aF5.529999999999957e-06
aF5.539999999999957e-06
aF5.549999999999957e-06
aF5.559999999999957e-06
aF5.569999999999957e-06
aF5.579999999999957e-06
aF5.589999999999957e-06
aF5.5999999999999565e-06
aF5.6099999999999565e-06
aF5.619999999999956e-06
aF5.629999999999956e-06
aF5.639999999999956e-06
aF5.649999999999956e-06
aF5.659999999999956e-06
aF5.669999999999956e-06
aF5.679999999999956e-06
aF5.689999999999956e-06
aF5.699999999999956e-06
aF5.7099999999999555e-06
aF5.719999999999955e-06
aF5.729999999999955e-06
aF5.739999999999955e-06
aF5.749999999999955e-06
aF5.759999999999955e-06
aF5.769999999999955e-06
aF5.779999999999955e-06
aF5.789999999999955e-06
aF5.799999999999955e-06
aF5.8099999999999545e-06
aF5.8199999999999544e-06
aF5.829999999999954e-06
aF5.839999999999954e-06
aF5.849999999999954e-06
aF5.859999999999954e-06
aF5.869999999999954e-06
aF5.879999999999954e-06
aF5.889999999999954e-06
aF5.899999999999954e-06
aF5.909999999999954e-06
aF5.9199999999999535e-06
aF5.929999999999953e-06
aF5.939999999999953e-06
aF5.949999999999953e-06
aF5.959999999999953e-06
aF5.969999999999953e-06
aF5.979999999999953e-06
aF5.989999999999953e-06
aF5.999999999999953e-06
aF6.009999999999953e-06
aF6.0199999999999525e-06
aF6.0299999999999524e-06
aF6.039999999999952e-06
aF6.049999999999952e-06
aF6.059999999999952e-06
aF6.069999999999952e-06
aF6.079999999999952e-06
aF6.089999999999952e-06
aF6.099999999999952e-06
aF6.109999999999952e-06
aF6.1199999999999516e-06
aF6.1299999999999515e-06
aF6.139999999999951e-06
aF6.149999999999951e-06
aF6.159999999999951e-06
aF6.169999999999951e-06
aF6.179999999999951e-06
aF6.189999999999951e-06
aF6.199999999999951e-06
aF6.209999999999951e-06
aF6.219999999999951e-06
aF6.2299999999999505e-06
aF6.23999999999995e-06
aF6.24999999999995e-06
aF6.25999999999995e-06
aF6.26999999999995e-06
aF6.27999999999995e-06
aF6.28999999999995e-06
aF6.29999999999995e-06
aF6.30999999999995e-06
aF6.31999999999995e-06
aF6.3299999999999496e-06
aF6.3399999999999495e-06
aF6.349999999999949e-06
aF6.359999999999949e-06
aF6.369999999999949e-06
aF6.379999999999949e-06
aF6.389999999999949e-06
aF6.399999999999949e-06
aF6.409999999999949e-06
aF6.419999999999949e-06
aF6.429999999999949e-06
aF6.4399999999999485e-06
aF6.449999999999948e-06
aF6.459999999999948e-06
aF6.469999999999948e-06
aF6.479999999999948e-06
aF6.489999999999948e-06
aF6.499999999999948e-06
aF6.509999999999948e-06
aF6.519999999999948e-06
aF6.529999999999948e-06
aF6.5399999999999475e-06
aF6.5499999999999475e-06
aF6.559999999999947e-06
aF6.569999999999947e-06
aF6.579999999999947e-06
aF6.589999999999947e-06
aF6.599999999999947e-06
aF6.609999999999947e-06
aF6.619999999999947e-06
aF6.629999999999947e-06
aF6.639999999999947e-06
aF6.6499999999999465e-06
aF6.659999999999946e-06
aF6.669999999999946e-06
aF6.679999999999946e-06
aF6.689999999999946e-06
aF6.699999999999946e-06
aF6.709999999999946e-06
aF6.719999999999946e-06
aF6.729999999999946e-06
aF6.739999999999946e-06
aF6.7499999999999455e-06
aF6.7599999999999454e-06
aF6.769999999999945e-06
aF6.779999999999945e-06
aF6.789999999999945e-06
aF6.799999999999945e-06
aF6.809999999999945e-06
aF6.819999999999945e-06
aF6.829999999999945e-06
aF6.839999999999945e-06
aF6.849999999999945e-06
aF6.8599999999999445e-06
aF6.869999999999944e-06
aF6.879999999999944e-06
aF6.889999999999944e-06
aF6.899999999999944e-06
aF6.909999999999944e-06
aF6.919999999999944e-06
aF6.929999999999944e-06
aF6.939999999999944e-06
aF6.949999999999944e-06
aF6.9599999999999435e-06
aF6.9699999999999434e-06
aF6.979999999999943e-06
aF6.989999999999943e-06
aF6.999999999999943e-06
aF7.009999999999943e-06
aF7.019999999999943e-06
aF7.029999999999943e-06
aF7.039999999999943e-06
aF7.049999999999943e-06
aF7.0599999999999426e-06
aF7.0699999999999425e-06
aF7.079999999999942e-06
aF7.089999999999942e-06
aF7.099999999999942e-06
aF7.109999999999942e-06
aF7.119999999999942e-06
aF7.129999999999942e-06
aF7.139999999999942e-06
aF7.149999999999942e-06
aF7.159999999999942e-06
aF7.1699999999999415e-06
aF7.179999999999941e-06
aF7.189999999999941e-06
aF7.199999999999941e-06
aF7.209999999999941e-06
aF7.219999999999941e-06
aF7.229999999999941e-06
aF7.239999999999941e-06
aF7.249999999999941e-06
aF7.259999999999941e-06
aF7.2699999999999406e-06
aF7.2799999999999405e-06
aF7.28999999999994e-06
aF7.29999999999994e-06
aF7.30999999999994e-06
aF7.31999999999994e-06
aF7.32999999999994e-06
aF7.33999999999994e-06
aF7.34999999999994e-06
aF7.35999999999994e-06
aF7.36999999999994e-06
aF7.3799999999999395e-06
aF7.389999999999939e-06
aF7.399999999999939e-06
aF7.409999999999939e-06
aF7.419999999999939e-06
aF7.429999999999939e-06
aF7.439999999999939e-06
aF7.449999999999939e-06
aF7.459999999999939e-06
aF7.469999999999939e-06
aF7.4799999999999385e-06
aF7.4899999999999385e-06
aF7.499999999999938e-06
aF7.509999999999938e-06
aF7.519999999999938e-06
aF7.529999999999938e-06
aF7.539999999999938e-06
aF7.549999999999938e-06
aF7.559999999999938e-06
aF7.569999999999938e-06
aF7.579999999999938e-06
aF7.5899999999999375e-06
aF7.599999999999937e-06
aF7.609999999999937e-06
aF7.619999999999937e-06
aF7.629999999999937e-06
aF7.639999999999937e-06
aF7.649999999999937e-06
aF7.659999999999937e-06
aF7.669999999999937e-06
aF7.679999999999937e-06
aF7.689999999999937e-06
aF7.699999999999936e-06
aF7.709999999999936e-06
aF7.719999999999936e-06
aF7.729999999999936e-06
aF7.739999999999936e-06
aF7.749999999999936e-06
aF7.759999999999936e-06
aF7.769999999999936e-06
aF7.779999999999936e-06
aF7.789999999999936e-06
aF7.799999999999935e-06
aF7.809999999999935e-06
aF7.819999999999935e-06
aF7.829999999999935e-06
aF7.839999999999935e-06
aF7.849999999999935e-06
aF7.859999999999935e-06
aF7.869999999999935e-06
aF7.879999999999935e-06
aF7.889999999999935e-06
aF7.899999999999935e-06
aF7.909999999999934e-06
aF7.919999999999934e-06
aF7.929999999999934e-06
aF7.939999999999934e-06
aF7.949999999999934e-06
aF7.959999999999934e-06
aF7.969999999999934e-06
aF7.979999999999934e-06
aF7.989999999999934e-06
aF7.999999999999934e-06
aF8.009999999999933e-06
aF8.019999999999933e-06
aF8.029999999999933e-06
aF8.039999999999933e-06
aF8.049999999999933e-06
aF8.059999999999933e-06
aF8.069999999999933e-06
aF8.079999999999933e-06
aF8.089999999999933e-06
aF8.099999999999933e-06
aF8.109999999999933e-06
aF8.119999999999932e-06
aF8.129999999999932e-06
aF8.139999999999932e-06
aF8.149999999999932e-06
aF8.159999999999932e-06
aF8.169999999999932e-06
aF8.179999999999932e-06
aF8.189999999999932e-06
aF8.199999999999932e-06
aF8.209999999999932e-06
aF8.219999999999931e-06
aF8.229999999999931e-06
aF8.239999999999931e-06
aF8.249999999999931e-06
aF8.259999999999931e-06
aF8.269999999999931e-06
aF8.279999999999931e-06
aF8.28999999999993e-06
aF8.29999999999993e-06
aF8.30999999999993e-06
aF8.31999999999993e-06
aF8.32999999999993e-06
aF8.33999999999993e-06
aF8.34999999999993e-06
aF8.35999999999993e-06
aF8.36999999999993e-06
aF8.37999999999993e-06
aF8.38999999999993e-06
aF8.39999999999993e-06
aF8.40999999999993e-06
aF8.41999999999993e-06
aF8.42999999999993e-06
aF8.43999999999993e-06
aF8.44999999999993e-06
aF8.45999999999993e-06
aF8.469999999999929e-06
aF8.479999999999929e-06
aF8.489999999999929e-06
aF8.499999999999929e-06
aF8.509999999999929e-06
aF8.519999999999929e-06
aF8.529999999999928e-06
aF8.539999999999928e-06
aF8.549999999999928e-06
aF8.559999999999928e-06
aF8.569999999999928e-06
aF8.579999999999928e-06
aF8.589999999999928e-06
aF8.599999999999928e-06
aF8.609999999999928e-06
aF8.619999999999928e-06
aF8.629999999999928e-06
aF8.639999999999927e-06
aF8.649999999999927e-06
aF8.659999999999927e-06
aF8.669999999999927e-06
aF8.679999999999927e-06
aF8.689999999999927e-06
aF8.699999999999927e-06
aF8.709999999999927e-06
aF8.719999999999927e-06
aF8.729999999999927e-06
aF8.739999999999926e-06
aF8.749999999999926e-06
aF8.759999999999926e-06
aF8.769999999999926e-06
aF8.779999999999926e-06
aF8.789999999999926e-06
aF8.799999999999926e-06
aF8.809999999999926e-06
aF8.819999999999926e-06
aF8.829999999999926e-06
aF8.839999999999926e-06
aF8.849999999999925e-06
aF8.859999999999925e-06
aF8.869999999999925e-06
aF8.879999999999925e-06
aF8.889999999999925e-06
aF8.899999999999925e-06
aF8.909999999999925e-06
aF8.919999999999925e-06
aF8.929999999999925e-06
aF8.939999999999925e-06
aF8.949999999999924e-06
aF8.959999999999924e-06
aF8.969999999999924e-06
aF8.979999999999924e-06
aF8.989999999999924e-06
aF8.999999999999924e-06
aF9.009999999999924e-06
aF9.019999999999924e-06
aF9.029999999999924e-06
aF9.039999999999924e-06
aF9.049999999999924e-06
aF9.059999999999923e-06
aF9.069999999999923e-06
aF9.079999999999923e-06
aF9.089999999999923e-06
aF9.099999999999923e-06
aF9.109999999999923e-06
aF9.119999999999923e-06
aF9.129999999999923e-06
aF9.139999999999923e-06
aF9.149999999999923e-06
aF9.159999999999922e-06
aF9.169999999999922e-06
aF9.179999999999922e-06
aF9.189999999999922e-06
aF9.199999999999922e-06
aF9.209999999999922e-06
aF9.219999999999922e-06
aF9.229999999999922e-06
aF9.239999999999922e-06
aF9.249999999999922e-06
aF9.259999999999922e-06
aF9.269999999999921e-06
aF9.279999999999921e-06
aF9.289999999999921e-06
aF9.299999999999921e-06
aF9.309999999999921e-06
aF9.319999999999921e-06
aF9.32999999999992e-06
aF9.33999999999992e-06
aF9.34999999999992e-06
aF9.35999999999992e-06
aF9.36999999999992e-06
aF9.37999999999992e-06
aF9.38999999999992e-06
aF9.39999999999992e-06
aF9.40999999999992e-06
aF9.41999999999992e-06
aF9.42999999999992e-06
aF9.43999999999992e-06
aF9.44999999999992e-06
aF9.45999999999992e-06
aF9.46999999999992e-06
aF9.47999999999992e-06
aF9.48999999999992e-06
aF9.49999999999992e-06
aF9.509999999999919e-06
aF9.519999999999919e-06
aF9.529999999999919e-06
aF9.539999999999919e-06
aF9.549999999999919e-06
aF9.559999999999919e-06
aF9.569999999999919e-06
aF9.579999999999918e-06
aF9.589999999999918e-06
aF9.599999999999918e-06
aF9.609999999999918e-06
aF9.619999999999918e-06
aF9.629999999999918e-06
aF9.639999999999918e-06
aF9.649999999999918e-06
aF9.659999999999918e-06
aF9.669999999999918e-06
aF9.679999999999917e-06
aF9.689999999999917e-06
aF9.699999999999917e-06
aF9.709999999999917e-06
aF9.719999999999917e-06
aF9.729999999999917e-06
aF9.739999999999917e-06
aF9.749999999999917e-06
aF9.759999999999917e-06
aF9.769999999999917e-06
aF9.779999999999917e-06
aF9.789999999999916e-06
aF9.799999999999916e-06
aF9.809999999999916e-06
aF9.819999999999916e-06
aF9.829999999999916e-06
aF9.839999999999916e-06
aF9.849999999999916e-06
aF9.859999999999916e-06
aF9.869999999999916e-06
aF9.879999999999916e-06
aF9.889999999999915e-06
aF9.899999999999915e-06
aF9.909999999999915e-06
aF9.919999999999915e-06
aF9.929999999999915e-06
aF9.939999999999915e-06
aF9.949999999999915e-06
aF9.959999999999915e-06
aF9.969999999999915e-06
aF9.979999999999915e-06
aF9.989999999999915e-06
aF9.999999999999914e-06
aF1.0009999999999914e-05
aF1.0019999999999914e-05
aF1.0029999999999914e-05
aF1.0039999999999914e-05
aF1.0049999999999914e-05
aF1.0059999999999914e-05
aF1.0069999999999914e-05
aF1.0079999999999914e-05
aF1.0089999999999914e-05
aF1.0099999999999913e-05
aF1.0109999999999913e-05
aF1.0119999999999913e-05
aF1.0129999999999913e-05
aF1.0139999999999913e-05
aF1.0149999999999913e-05
aF1.0159999999999913e-05
aF1.0169999999999913e-05
aF1.0179999999999913e-05
aF1.0189999999999913e-05
aF1.0199999999999913e-05
aF1.0209999999999912e-05
aF1.0219999999999912e-05
aF1.0229999999999912e-05
aF1.0239999999999912e-05
aF1.0249999999999912e-05
aF1.0259999999999912e-05
aF1.0269999999999912e-05
a.