(lp0
I0
aF1e-10
aF2e-10
aF3e-10
aF4e-10
aF5e-10
aF6e-10
aF7e-10
aF7.999999999999999e-10
aF8.999999999999999e-10
aF9.999999999999999e-10
aF1.1e-09
aF1.2e-09
aF1.3e-09
aF1.4000000000000001e-09
aF1.5000000000000002e-09
aF1.6000000000000003e-09
aF1.7000000000000003e-09
aF1.8000000000000004e-09
aF1.9000000000000005e-09
aF2.0000000000000005e-09
aF2.1000000000000006e-09
aF2.2000000000000007e-09
aF2.3000000000000007e-09
aF2.400000000000001e-09
aF2.500000000000001e-09
aF2.600000000000001e-09
aF2.700000000000001e-09
aF2.800000000000001e-09
aF2.900000000000001e-09
aF3.0000000000000012e-09
aF3.1000000000000013e-09
aF3.2000000000000014e-09
aF3.3000000000000014e-09
aF3.4000000000000015e-09
aF3.5000000000000016e-09
aF3.6000000000000016e-09
aF3.7000000000000017e-09
aF3.800000000000002e-09
aF3.900000000000002e-09
aF4.000000000000002e-09
aF4.100000000000002e-09
aF4.200000000000002e-09
aF4.300000000000002e-09
aF4.400000000000002e-09
aF4.500000000000002e-09
aF4.600000000000002e-09
aF4.700000000000002e-09
aF4.8000000000000024e-09
aF4.9000000000000025e-09
aF5.0000000000000026e-09
aF5.100000000000003e-09
aF5.200000000000003e-09
aF5.300000000000003e-09
aF5.400000000000003e-09
aF5.500000000000003e-09
aF5.600000000000003e-09
aF5.700000000000003e-09
aF5.800000000000003e-09
aF5.900000000000003e-09
aF6.000000000000003e-09
aF6.100000000000003e-09
aF6.200000000000003e-09
aF6.3000000000000035e-09
aF6.4000000000000035e-09
aF6.500000000000004e-09
aF6.600000000000004e-09
aF6.700000000000004e-09
aF6.800000000000004e-09
aF6.900000000000004e-09
aF7.000000000000004e-09
aF7.100000000000004e-09
aF7.200000000000004e-09
aF7.300000000000004e-09
aF7.400000000000004e-09
aF7.500000000000004e-09
aF7.600000000000004e-09
aF7.700000000000003e-09
aF7.800000000000002e-09
aF7.900000000000001e-09
aF8e-09
aF8.1e-09
aF8.199999999999999e-09
aF8.299999999999998e-09
aF8.399999999999997e-09
aF8.499999999999997e-09
aF8.599999999999996e-09
aF8.699999999999995e-09
aF8.799999999999994e-09
aF8.899999999999994e-09
aF8.999999999999993e-09
aF9.099999999999992e-09
aF9.199999999999991e-09
aF9.29999999999999e-09
aF9.39999999999999e-09
aF9.499999999999989e-09
aF9.599999999999988e-09
aF9.699999999999988e-09
aF9.799999999999987e-09
aF9.899999999999986e-09
aF9.999999999999985e-09
aF1.0099999999999985e-08
aF1.0199999999999984e-08
aF1.0299999999999983e-08
aF1.0399999999999982e-08
aF1.0499999999999982e-08
aF1.059999999999998e-08
aF1.069999999999998e-08
aF1.079999999999998e-08
aF1.0899999999999978e-08
aF1.0999999999999978e-08
aF1.1099999999999977e-08
aF1.1199999999999976e-08
aF1.1299999999999975e-08
aF1.1399999999999975e-08
aF1.1499999999999974e-08
aF1.1599999999999973e-08
aF1.1699999999999972e-08
aF1.1799999999999972e-08
aF1.1899999999999971e-08
aF1.199999999999997e-08
aF1.209999999999997e-08
aF1.2199999999999969e-08
aF1.2299999999999968e-08
aF1.2399999999999967e-08
aF1.2499999999999966e-08
aF1.2599999999999966e-08
aF1.2699999999999965e-08
aF1.2799999999999964e-08
aF1.2899999999999963e-08
aF1.2999999999999963e-08
aF1.3099999999999962e-08
aF1.3199999999999961e-08
aF1.329999999999996e-08
aF1.339999999999996e-08
aF1.3499999999999959e-08
aF1.3599999999999958e-08
aF1.3699999999999957e-08
aF1.3799999999999956e-08
aF1.3899999999999956e-08
aF1.3999999999999955e-08
aF1.4099999999999954e-08
aF1.4199999999999953e-08
aF1.4299999999999953e-08
aF1.4399999999999952e-08
aF1.4499999999999951e-08
aF1.459999999999995e-08
aF1.469999999999995e-08
aF1.4799999999999949e-08
aF1.4899999999999948e-08
aF1.499999999999995e-08
aF1.509999999999995e-08
aF1.519999999999995e-08
aF1.5299999999999952e-08
aF1.5399999999999953e-08
aF1.5499999999999954e-08
aF1.5599999999999954e-08
aF1.5699999999999955e-08
aF1.5799999999999956e-08
aF1.5899999999999957e-08
aF1.5999999999999958e-08
aF1.609999999999996e-08
aF1.619999999999996e-08
aF1.629999999999996e-08
aF1.639999999999996e-08
aF1.6499999999999962e-08
aF1.6599999999999963e-08
aF1.6699999999999964e-08
aF1.6799999999999965e-08
aF1.6899999999999966e-08
aF1.6999999999999967e-08
aF1.7099999999999968e-08
aF1.719999999999997e-08
aF1.729999999999997e-08
aF1.739999999999997e-08
aF1.749999999999997e-08
aF1.7599999999999972e-08
aF1.7699999999999973e-08
aF1.7799999999999974e-08
aF1.7899999999999975e-08
aF1.7999999999999976e-08
aF1.8099999999999977e-08
aF1.8199999999999978e-08
aF1.829999999999998e-08
aF1.839999999999998e-08
aF1.849999999999998e-08
aF1.859999999999998e-08
aF1.8699999999999982e-08
aF1.8799999999999983e-08
aF1.8899999999999984e-08
aF1.8999999999999985e-08
aF1.9099999999999986e-08
aF1.9199999999999987e-08
aF1.9299999999999988e-08
aF1.939999999999999e-08
aF1.949999999999999e-08
aF1.959999999999999e-08
aF1.969999999999999e-08
aF1.9799999999999992e-08
aF1.9899999999999993e-08
aF1.9999999999999994e-08
aF2.0099999999999995e-08
aF2.0199999999999996e-08
aF2.0299999999999996e-08
aF2.0399999999999997e-08
aF2.0499999999999998e-08
aF2.06e-08
aF2.07e-08
aF2.08e-08
aF2.0900000000000002e-08
aF2.1000000000000003e-08
aF2.1100000000000004e-08
aF2.1200000000000005e-08
aF2.1300000000000005e-08
aF2.1400000000000006e-08
aF2.1500000000000007e-08
aF2.1600000000000008e-08
aF2.170000000000001e-08
aF2.180000000000001e-08
aF2.190000000000001e-08
aF2.2000000000000012e-08
aF2.2100000000000013e-08
aF2.2200000000000014e-08
aF2.2300000000000014e-08
aF2.2400000000000015e-08
aF2.2500000000000016e-08
aF2.2600000000000017e-08
aF2.2700000000000018e-08
aF2.280000000000002e-08
aF2.290000000000002e-08
aF2.300000000000002e-08
aF2.310000000000002e-08
aF2.3200000000000022e-08
aF2.3300000000000023e-08
aF2.3400000000000024e-08
aF2.3500000000000025e-08
aF2.3600000000000026e-08
aF2.3700000000000027e-08
aF2.3800000000000028e-08
aF2.390000000000003e-08
aF2.400000000000003e-08
aF2.410000000000003e-08
aF2.420000000000003e-08
aF2.4300000000000032e-08
aF2.4400000000000033e-08
aF2.4500000000000034e-08
aF2.4600000000000035e-08
aF2.4700000000000036e-08
aF2.4800000000000037e-08
aF2.4900000000000038e-08
aF2.500000000000004e-08
aF2.510000000000004e-08
aF2.520000000000004e-08
aF2.530000000000004e-08
aF2.5400000000000042e-08
aF2.5500000000000043e-08
aF2.5600000000000044e-08
aF2.5700000000000045e-08
aF2.5800000000000046e-08
aF2.5900000000000047e-08
aF2.6000000000000048e-08
aF2.610000000000005e-08
aF2.620000000000005e-08
aF2.630000000000005e-08
aF2.640000000000005e-08
aF2.6500000000000052e-08
aF2.6600000000000053e-08
aF2.6700000000000054e-08
aF2.6800000000000055e-08
aF2.6900000000000056e-08
aF2.7000000000000056e-08
aF2.7100000000000057e-08
aF2.7200000000000058e-08
aF2.730000000000006e-08
aF2.740000000000006e-08
aF2.750000000000006e-08
aF2.7600000000000062e-08
aF2.7700000000000063e-08
aF2.7800000000000064e-08
aF2.7900000000000065e-08
aF2.8000000000000065e-08
aF2.8100000000000066e-08
aF2.8200000000000067e-08
aF2.8300000000000068e-08
aF2.840000000000007e-08
aF2.850000000000007e-08
aF2.860000000000007e-08
aF2.8700000000000072e-08
aF2.8800000000000073e-08
aF2.8900000000000073e-08
aF2.9000000000000074e-08
aF2.9100000000000075e-08
aF2.9200000000000076e-08
aF2.9300000000000077e-08
aF2.9400000000000078e-08
aF2.950000000000008e-08
aF2.960000000000008e-08
aF2.970000000000008e-08
aF2.980000000000008e-08
aF2.990000000000008e-08
aF3.0000000000000083e-08
aF3.0100000000000084e-08
aF3.0200000000000085e-08
aF3.0300000000000086e-08
aF3.040000000000009e-08
aF3.050000000000009e-08
aF3.060000000000009e-08
aF3.070000000000009e-08
aF3.080000000000009e-08
aF3.090000000000009e-08
aF3.100000000000009e-08
aF3.110000000000009e-08
aF3.1200000000000094e-08
aF3.1300000000000095e-08
aF3.1400000000000096e-08
aF3.15000000000001e-08
aF3.16000000000001e-08
aF3.17000000000001e-08
aF3.18000000000001e-08
aF3.19000000000001e-08
aF3.20000000000001e-08
aF3.21000000000001e-08
aF3.22000000000001e-08
aF3.2300000000000104e-08
aF3.2400000000000105e-08
aF3.2500000000000106e-08
aF3.2600000000000107e-08
aF3.270000000000011e-08
aF3.280000000000011e-08
aF3.290000000000011e-08
aF3.300000000000011e-08
aF3.310000000000011e-08
aF3.320000000000011e-08
aF3.330000000000011e-08
aF3.3400000000000114e-08
aF3.3500000000000115e-08
aF3.3600000000000116e-08
aF3.3700000000000116e-08
aF3.380000000000012e-08
aF3.390000000000012e-08
aF3.400000000000012e-08
aF3.410000000000012e-08
aF3.420000000000012e-08
aF3.430000000000012e-08
aF3.440000000000012e-08
aF3.4500000000000124e-08
aF3.4600000000000125e-08
aF3.4700000000000125e-08
aF3.4800000000000126e-08
aF3.490000000000013e-08
aF3.500000000000013e-08
aF3.510000000000013e-08
aF3.520000000000013e-08
aF3.530000000000013e-08
aF3.540000000000013e-08
aF3.550000000000013e-08
aF3.5600000000000133e-08
aF3.5700000000000134e-08
aF3.5800000000000135e-08
aF3.5900000000000136e-08
aF3.600000000000014e-08
aF3.610000000000014e-08
aF3.620000000000014e-08
aF3.630000000000014e-08
aF3.640000000000014e-08
aF3.650000000000014e-08
aF3.660000000000014e-08
aF3.6700000000000143e-08
aF3.6800000000000144e-08
aF3.6900000000000145e-08
aF3.7000000000000146e-08
aF3.710000000000015e-08
aF3.720000000000015e-08
aF3.730000000000015e-08
aF3.740000000000015e-08
aF3.750000000000015e-08
aF3.760000000000015e-08
aF3.770000000000015e-08
aF3.780000000000015e-08
aF3.7900000000000154e-08
aF3.8000000000000155e-08
aF3.8100000000000156e-08
aF3.820000000000016e-08
aF3.830000000000016e-08
aF3.840000000000016e-08
aF3.850000000000016e-08
aF3.860000000000016e-08
aF3.870000000000016e-08
aF3.880000000000016e-08
aF3.890000000000016e-08
aF3.9000000000000164e-08
aF3.9100000000000165e-08
aF3.9200000000000166e-08
aF3.9300000000000167e-08
aF3.940000000000017e-08
aF3.950000000000017e-08
aF3.960000000000017e-08
aF3.970000000000017e-08
aF3.980000000000017e-08
aF3.990000000000017e-08
aF4.000000000000017e-08
aF4.0100000000000174e-08
aF4.0200000000000175e-08
aF4.0300000000000176e-08
aF4.0400000000000176e-08
aF4.050000000000018e-08
aF4.060000000000018e-08
aF4.070000000000018e-08
aF4.080000000000018e-08
aF4.090000000000018e-08
aF4.100000000000018e-08
aF4.110000000000018e-08
aF4.1200000000000184e-08
aF4.1300000000000185e-08
aF4.1400000000000185e-08
aF4.1500000000000186e-08
aF4.160000000000019e-08
aF4.170000000000019e-08
aF4.180000000000019e-08
aF4.190000000000019e-08
aF4.200000000000019e-08
aF4.210000000000019e-08
aF4.220000000000019e-08
aF4.2300000000000193e-08
aF4.2400000000000194e-08
aF4.2500000000000195e-08
aF4.2600000000000196e-08
aF4.27000000000002e-08
aF4.28000000000002e-08
aF4.29000000000002e-08
aF4.30000000000002e-08
aF4.31000000000002e-08
aF4.32000000000002e-08
aF4.33000000000002e-08
aF4.3400000000000203e-08
aF4.3500000000000204e-08
aF4.3600000000000205e-08
aF4.3700000000000206e-08
aF4.380000000000021e-08
aF4.390000000000021e-08
aF4.400000000000021e-08
aF4.410000000000021e-08
aF4.420000000000021e-08
aF4.430000000000021e-08
aF4.440000000000021e-08
aF4.450000000000021e-08
aF4.4600000000000214e-08
aF4.4700000000000215e-08
aF4.4800000000000216e-08
aF4.490000000000022e-08
aF4.500000000000022e-08
aF4.510000000000022e-08
aF4.520000000000022e-08
aF4.530000000000022e-08
aF4.540000000000022e-08
aF4.550000000000022e-08
aF4.560000000000022e-08
aF4.5700000000000224e-08
aF4.5800000000000225e-08
aF4.5900000000000226e-08
aF4.6000000000000227e-08
aF4.610000000000023e-08
aF4.620000000000023e-08
aF4.630000000000023e-08
aF4.640000000000023e-08
aF4.650000000000023e-08
aF4.660000000000023e-08
aF4.670000000000023e-08
aF4.6800000000000234e-08
aF4.6900000000000235e-08
aF4.7000000000000236e-08
aF4.7100000000000236e-08
aF4.720000000000024e-08
aF4.730000000000024e-08
aF4.740000000000024e-08
aF4.750000000000024e-08
aF4.760000000000024e-08
aF4.770000000000024e-08
aF4.780000000000024e-08
aF4.7900000000000244e-08
aF4.8000000000000245e-08
aF4.8100000000000245e-08
aF4.8200000000000246e-08
aF4.830000000000025e-08
aF4.840000000000025e-08
aF4.850000000000025e-08
aF4.860000000000025e-08
aF4.870000000000025e-08
aF4.880000000000025e-08
aF4.890000000000025e-08
aF4.9000000000000253e-08
aF4.9100000000000254e-08
aF4.9200000000000255e-08
aF4.9300000000000256e-08
aF4.940000000000026e-08
aF4.950000000000026e-08
aF4.960000000000026e-08
aF4.970000000000026e-08
aF4.980000000000026e-08
aF4.990000000000026e-08
aF5.000000000000026e-08
aF5.0100000000000263e-08
aF5.0200000000000264e-08
aF5.0300000000000265e-08
aF5.0400000000000266e-08
aF5.050000000000027e-08
aF5.060000000000027e-08
aF5.070000000000027e-08
aF5.080000000000027e-08
aF5.090000000000027e-08
aF5.100000000000027e-08
aF5.110000000000027e-08
aF5.120000000000027e-08
aF5.1300000000000274e-08
aF5.1400000000000275e-08
aF5.1500000000000276e-08
aF5.160000000000028e-08
aF5.170000000000028e-08
aF5.180000000000028e-08
aF5.190000000000028e-08
aF5.200000000000028e-08
aF5.210000000000028e-08
aF5.220000000000028e-08
aF5.230000000000028e-08
aF5.2400000000000284e-08
aF5.2500000000000285e-08
aF5.2600000000000286e-08
aF5.2700000000000287e-08
aF5.280000000000029e-08
aF5.290000000000029e-08
aF5.300000000000029e-08
aF5.310000000000029e-08
aF5.320000000000029e-08
aF5.330000000000029e-08
aF5.340000000000029e-08
aF5.3500000000000294e-08
aF5.3600000000000295e-08
aF5.3700000000000296e-08
aF5.3800000000000296e-08
aF5.39000000000003e-08
aF5.40000000000003e-08
aF5.41000000000003e-08
aF5.42000000000003e-08
aF5.43000000000003e-08
aF5.44000000000003e-08
aF5.45000000000003e-08
aF5.4600000000000304e-08
aF5.4700000000000305e-08
aF5.4800000000000305e-08
aF5.4900000000000306e-08
aF5.500000000000031e-08
aF5.510000000000031e-08
aF5.520000000000031e-08
aF5.530000000000031e-08
aF5.540000000000031e-08
aF5.550000000000031e-08
aF5.560000000000031e-08
aF5.5700000000000313e-08
aF5.5800000000000314e-08
aF5.5900000000000315e-08
aF5.6000000000000316e-08
aF5.610000000000032e-08
aF5.620000000000032e-08
aF5.630000000000032e-08
aF5.640000000000032e-08
aF5.650000000000032e-08
aF5.660000000000032e-08
aF5.670000000000032e-08
aF5.6800000000000323e-08
aF5.6900000000000324e-08
aF5.7000000000000325e-08
aF5.7100000000000326e-08
aF5.720000000000033e-08
aF5.730000000000033e-08
aF5.740000000000033e-08
aF5.750000000000033e-08
aF5.760000000000033e-08
aF5.770000000000033e-08
aF5.780000000000033e-08
aF5.790000000000033e-08
aF5.8000000000000334e-08
aF5.8100000000000335e-08
aF5.8200000000000336e-08
aF5.830000000000034e-08
aF5.840000000000034e-08
aF5.850000000000034e-08
aF5.860000000000034e-08
aF5.870000000000034e-08
aF5.880000000000034e-08
aF5.890000000000034e-08
aF5.900000000000034e-08
aF5.9100000000000344e-08
aF5.9200000000000345e-08
aF5.9300000000000346e-08
aF5.9400000000000347e-08
aF5.950000000000035e-08
aF5.960000000000035e-08
aF5.970000000000034e-08
aF5.980000000000034e-08
aF5.990000000000033e-08
aF6.000000000000033e-08
aF6.010000000000032e-08
aF6.020000000000031e-08
aF6.030000000000031e-08
aF6.04000000000003e-08
aF6.05000000000003e-08
aF6.060000000000029e-08
aF6.070000000000029e-08
aF6.080000000000028e-08
aF6.090000000000027e-08
aF6.100000000000027e-08
aF6.110000000000026e-08
aF6.120000000000026e-08
aF6.130000000000025e-08
aF6.140000000000025e-08
aF6.150000000000024e-08
aF6.160000000000023e-08
aF6.170000000000023e-08
aF6.180000000000022e-08
aF6.190000000000022e-08
aF6.200000000000021e-08
aF6.21000000000002e-08
aF6.22000000000002e-08
aF6.23000000000002e-08
aF6.240000000000019e-08
aF6.250000000000018e-08
aF6.260000000000018e-08
aF6.270000000000017e-08
aF6.280000000000017e-08
aF6.290000000000016e-08
aF6.300000000000015e-08
aF6.310000000000015e-08
aF6.320000000000014e-08
aF6.330000000000014e-08
aF6.340000000000013e-08
aF6.350000000000013e-08
aF6.360000000000012e-08
aF6.370000000000011e-08
aF6.380000000000011e-08
aF6.39000000000001e-08
aF6.40000000000001e-08
aF6.410000000000009e-08
aF6.420000000000009e-08
aF6.430000000000008e-08
aF6.440000000000007e-08
aF6.450000000000007e-08
aF6.460000000000006e-08
aF6.470000000000006e-08
aF6.480000000000005e-08
aF6.490000000000005e-08
aF6.500000000000004e-08
aF6.510000000000003e-08
aF6.520000000000003e-08
aF6.530000000000002e-08
aF6.540000000000002e-08
aF6.550000000000001e-08
aF6.56e-08
aF6.57e-08
aF6.58e-08
aF6.589999999999999e-08
aF6.599999999999998e-08
aF6.609999999999998e-08
aF6.619999999999997e-08
aF6.629999999999997e-08
aF6.639999999999996e-08
aF6.649999999999995e-08
aF6.659999999999995e-08
aF6.669999999999994e-08
aF6.679999999999994e-08
aF6.689999999999993e-08
aF6.699999999999992e-08
aF6.709999999999992e-08
aF6.719999999999991e-08
aF6.729999999999991e-08
aF6.73999999999999e-08
aF6.74999999999999e-08
aF6.759999999999989e-08
aF6.769999999999988e-08
aF6.779999999999988e-08
aF6.789999999999987e-08
aF6.799999999999987e-08
aF6.809999999999986e-08
aF6.819999999999986e-08
aF6.829999999999985e-08
aF6.839999999999984e-08
aF6.849999999999984e-08
aF6.859999999999983e-08
aF6.869999999999983e-08
aF6.879999999999982e-08
aF6.889999999999982e-08
aF6.899999999999981e-08
aF6.90999999999998e-08
aF6.91999999999998e-08
aF6.929999999999979e-08
aF6.939999999999979e-08
aF6.949999999999978e-08
aF6.959999999999978e-08
aF6.969999999999977e-08
aF6.979999999999976e-08
aF6.989999999999976e-08
aF6.999999999999975e-08
aF7.009999999999975e-08
aF7.019999999999974e-08
aF7.029999999999974e-08
aF7.039999999999973e-08
aF7.049999999999972e-08
aF7.059999999999972e-08
aF7.069999999999971e-08
aF7.079999999999971e-08
aF7.08999999999997e-08
aF7.09999999999997e-08
aF7.109999999999969e-08
aF7.119999999999968e-08
aF7.129999999999968e-08
aF7.139999999999967e-08
aF7.149999999999967e-08
aF7.159999999999966e-08
aF7.169999999999966e-08
aF7.179999999999965e-08
aF7.189999999999964e-08
aF7.199999999999964e-08
aF7.209999999999963e-08
aF7.219999999999963e-08
aF7.229999999999962e-08
aF7.239999999999962e-08
aF7.249999999999961e-08
aF7.25999999999996e-08
aF7.26999999999996e-08
aF7.279999999999959e-08
aF7.289999999999959e-08
aF7.299999999999958e-08
aF7.309999999999958e-08
aF7.319999999999957e-08
aF7.329999999999956e-08
aF7.339999999999956e-08
aF7.349999999999955e-08
aF7.359999999999955e-08
aF7.369999999999954e-08
aF7.379999999999954e-08
aF7.389999999999953e-08
aF7.399999999999952e-08
aF7.409999999999952e-08
aF7.419999999999951e-08
aF7.429999999999951e-08
aF7.43999999999995e-08
aF7.44999999999995e-08
aF7.459999999999949e-08
aF7.469999999999948e-08
aF7.479999999999948e-08
aF7.489999999999947e-08
aF7.499999999999947e-08
aF7.509999999999946e-08
aF7.519999999999946e-08
aF7.529999999999945e-08
aF7.539999999999944e-08
aF7.549999999999944e-08
aF7.559999999999943e-08
aF7.569999999999943e-08
aF7.579999999999942e-08
aF7.589999999999942e-08
aF7.599999999999941e-08
aF7.60999999999994e-08
aF7.61999999999994e-08
aF7.629999999999939e-08
aF7.639999999999939e-08
aF7.649999999999938e-08
aF7.659999999999938e-08
aF7.669999999999937e-08
aF7.679999999999936e-08
aF7.689999999999936e-08
aF7.699999999999935e-08
aF7.709999999999935e-08
aF7.719999999999934e-08
aF7.729999999999934e-08
aF7.739999999999933e-08
aF7.749999999999932e-08
aF7.759999999999932e-08
aF7.769999999999931e-08
aF7.779999999999931e-08
aF7.78999999999993e-08
aF7.79999999999993e-08
aF7.809999999999929e-08
aF7.819999999999928e-08
aF7.829999999999928e-08
aF7.839999999999927e-08
aF7.849999999999927e-08
aF7.859999999999926e-08
aF7.869999999999926e-08
aF7.879999999999925e-08
aF7.889999999999924e-08
aF7.899999999999924e-08
aF7.909999999999923e-08
aF7.919999999999923e-08
aF7.929999999999922e-08
aF7.939999999999922e-08
aF7.949999999999921e-08
aF7.95999999999992e-08
aF7.96999999999992e-08
aF7.979999999999919e-08
aF7.989999999999919e-08
aF7.999999999999918e-08
aF8.009999999999918e-08
aF8.019999999999917e-08
aF8.029999999999916e-08
aF8.039999999999916e-08
aF8.049999999999915e-08
aF8.059999999999915e-08
aF8.069999999999914e-08
aF8.079999999999914e-08
aF8.089999999999913e-08
aF8.099999999999912e-08
aF8.109999999999912e-08
aF8.119999999999911e-08
aF8.129999999999911e-08
aF8.13999999999991e-08
aF8.14999999999991e-08
aF8.159999999999909e-08
aF8.169999999999908e-08
aF8.179999999999908e-08
aF8.189999999999907e-08
aF8.199999999999907e-08
aF8.209999999999906e-08
aF8.219999999999906e-08
aF8.229999999999905e-08
aF8.239999999999904e-08
aF8.249999999999904e-08
aF8.259999999999903e-08
aF8.269999999999903e-08
aF8.279999999999902e-08
aF8.289999999999902e-08
aF8.299999999999901e-08
aF8.3099999999999e-08
aF8.3199999999999e-08
aF8.329999999999899e-08
aF8.339999999999899e-08
aF8.349999999999898e-08
aF8.359999999999898e-08
aF8.369999999999897e-08
aF8.379999999999896e-08
aF8.389999999999896e-08
aF8.399999999999895e-08
aF8.409999999999895e-08
aF8.419999999999894e-08
aF8.429999999999894e-08
aF8.439999999999893e-08
aF8.449999999999892e-08
aF8.459999999999892e-08
aF8.469999999999891e-08
aF8.47999999999989e-08
aF8.48999999999989e-08
aF8.49999999999989e-08
aF8.509999999999889e-08
aF8.519999999999888e-08
aF8.529999999999888e-08
aF8.539999999999887e-08
aF8.549999999999887e-08
aF8.559999999999886e-08
aF8.569999999999885e-08
aF8.579999999999885e-08
aF8.589999999999884e-08
aF8.599999999999884e-08
aF8.609999999999883e-08
aF8.619999999999883e-08
aF8.629999999999882e-08
aF8.639999999999881e-08
aF8.649999999999881e-08
aF8.65999999999988e-08
aF8.66999999999988e-08
aF8.679999999999879e-08
aF8.689999999999879e-08
aF8.699999999999878e-08
aF8.709999999999877e-08
aF8.719999999999877e-08
aF8.729999999999876e-08
aF8.739999999999876e-08
aF8.749999999999875e-08
aF8.759999999999875e-08
aF8.769999999999874e-08
aF8.779999999999873e-08
aF8.789999999999873e-08
aF8.799999999999872e-08
aF8.809999999999872e-08
aF8.819999999999871e-08
aF8.82999999999987e-08
aF8.83999999999987e-08
aF8.84999999999987e-08
aF8.859999999999869e-08
aF8.869999999999868e-08
aF8.879999999999868e-08
aF8.889999999999867e-08
aF8.899999999999867e-08
aF8.909999999999866e-08
aF8.919999999999865e-08
aF8.929999999999865e-08
aF8.939999999999864e-08
aF8.949999999999864e-08
aF8.959999999999863e-08
aF8.969999999999863e-08
aF8.979999999999862e-08
aF8.989999999999861e-08
aF8.999999999999861e-08
aF9.00999999999986e-08
aF9.01999999999986e-08
aF9.029999999999859e-08
aF9.039999999999859e-08
aF9.049999999999858e-08
aF9.059999999999857e-08
aF9.069999999999857e-08
aF9.079999999999856e-08
aF9.089999999999856e-08
aF9.099999999999855e-08
aF9.109999999999855e-08
aF9.119999999999854e-08
aF9.129999999999853e-08
aF9.139999999999853e-08
aF9.149999999999852e-08
aF9.159999999999852e-08
aF9.169999999999851e-08
aF9.17999999999985e-08
aF9.18999999999985e-08
aF9.19999999999985e-08
aF9.209999999999849e-08
aF9.219999999999848e-08
aF9.229999999999848e-08
aF9.239999999999847e-08
aF9.249999999999847e-08
aF9.259999999999846e-08
aF9.269999999999845e-08
aF9.279999999999845e-08
aF9.289999999999844e-08
aF9.299999999999844e-08
aF9.309999999999843e-08
aF9.319999999999843e-08
aF9.329999999999842e-08
aF9.339999999999841e-08
aF9.349999999999841e-08
aF9.35999999999984e-08
aF9.36999999999984e-08
aF9.379999999999839e-08
aF9.389999999999839e-08
aF9.399999999999838e-08
aF9.409999999999837e-08
aF9.419999999999837e-08
aF9.429999999999836e-08
aF9.439999999999836e-08
aF9.449999999999835e-08
aF9.459999999999835e-08
aF9.469999999999834e-08
aF9.479999999999833e-08
aF9.489999999999833e-08
aF9.499999999999832e-08
aF9.509999999999832e-08
aF9.519999999999831e-08
aF9.52999999999983e-08
aF9.53999999999983e-08
aF9.54999999999983e-08
aF9.559999999999829e-08
aF9.569999999999828e-08
aF9.579999999999828e-08
aF9.589999999999827e-08
aF9.599999999999827e-08
aF9.609999999999826e-08
aF9.619999999999825e-08
aF9.629999999999825e-08
aF9.639999999999824e-08
aF9.649999999999824e-08
aF9.659999999999823e-08
aF9.669999999999823e-08
aF9.679999999999822e-08
aF9.689999999999821e-08
aF9.699999999999821e-08
aF9.70999999999982e-08
aF9.71999999999982e-08
aF9.729999999999819e-08
aF9.739999999999819e-08
aF9.749999999999818e-08
aF9.759999999999817e-08
aF9.769999999999817e-08
aF9.779999999999816e-08
aF9.789999999999816e-08
aF9.799999999999815e-08
aF9.809999999999815e-08
aF9.819999999999814e-08
aF9.829999999999813e-08
aF9.839999999999813e-08
aF9.849999999999812e-08
aF9.859999999999812e-08
aF9.869999999999811e-08
aF9.87999999999981e-08
aF9.88999999999981e-08
aF9.89999999999981e-08
aF9.909999999999809e-08
aF9.919999999999808e-08
aF9.929999999999808e-08
aF9.939999999999807e-08
aF9.949999999999807e-08
aF9.959999999999806e-08
aF9.969999999999805e-08
aF9.979999999999805e-08
aF9.989999999999804e-08
aF9.999999999999804e-08
aF1.0009999999999803e-07
aF1.0019999999999803e-07
aF1.0029999999999802e-07
aF1.0039999999999801e-07
aF1.0049999999999801e-07
aF1.00599999999998e-07
aF1.00699999999998e-07
aF1.0079999999999799e-07
aF1.0089999999999799e-07
aF1.0099999999999798e-07
aF1.0109999999999797e-07
aF1.0119999999999797e-07
aF1.0129999999999796e-07
aF1.0139999999999796e-07
aF1.0149999999999795e-07
aF1.0159999999999795e-07
aF1.0169999999999794e-07
aF1.0179999999999793e-07
aF1.0189999999999793e-07
aF1.0199999999999792e-07
aF1.0209999999999792e-07
aF1.0219999999999791e-07
aF1.022999999999979e-07
aF1.023999999999979e-07
aF1.024999999999979e-07
aF1.0259999999999789e-07
aF1.0269999999999788e-07
aF1.0279999999999788e-07
aF1.0289999999999787e-07
aF1.0299999999999787e-07
aF1.0309999999999786e-07
aF1.0319999999999785e-07
aF1.0329999999999785e-07
aF1.0339999999999784e-07
aF1.0349999999999784e-07
aF1.0359999999999783e-07
aF1.0369999999999782e-07
aF1.0379999999999782e-07
aF1.0389999999999781e-07
aF1.0399999999999781e-07
aF1.040999999999978e-07
aF1.041999999999978e-07
aF1.0429999999999779e-07
aF1.0439999999999778e-07
aF1.0449999999999778e-07
aF1.0459999999999777e-07
aF1.0469999999999777e-07
aF1.0479999999999776e-07
aF1.0489999999999776e-07
aF1.0499999999999775e-07
aF1.0509999999999774e-07
aF1.0519999999999774e-07
aF1.0529999999999773e-07
aF1.0539999999999773e-07
aF1.0549999999999772e-07
aF1.0559999999999772e-07
aF1.0569999999999771e-07
aF1.057999999999977e-07
aF1.058999999999977e-07
aF1.059999999999977e-07
aF1.0609999999999769e-07
aF1.0619999999999768e-07
aF1.0629999999999768e-07
aF1.0639999999999767e-07
aF1.0649999999999766e-07
aF1.0659999999999766e-07
aF1.0669999999999765e-07
aF1.0679999999999765e-07
aF1.0689999999999764e-07
aF1.0699999999999764e-07
aF1.0709999999999763e-07
aF1.0719999999999762e-07
aF1.0729999999999762e-07
aF1.0739999999999761e-07
aF1.0749999999999761e-07
aF1.075999999999976e-07
aF1.076999999999976e-07
aF1.0779999999999759e-07
aF1.0789999999999758e-07
aF1.0799999999999758e-07
aF1.0809999999999757e-07
aF1.0819999999999757e-07
aF1.0829999999999756e-07
aF1.0839999999999756e-07
aF1.0849999999999755e-07
aF1.0859999999999754e-07
aF1.0869999999999754e-07
aF1.0879999999999753e-07
aF1.0889999999999753e-07
aF1.0899999999999752e-07
aF1.0909999999999752e-07
aF1.0919999999999751e-07
aF1.092999999999975e-07
aF1.093999999999975e-07
aF1.0949999999999749e-07
aF1.0959999999999749e-07
aF1.0969999999999748e-07
aF1.0979999999999748e-07
aF1.0989999999999747e-07
aF1.0999999999999746e-07
aF1.1009999999999746e-07
aF1.1019999999999745e-07
aF1.1029999999999745e-07
aF1.1039999999999744e-07
aF1.1049999999999744e-07
aF1.1059999999999743e-07
aF1.1069999999999742e-07
aF1.1079999999999742e-07
aF1.1089999999999741e-07
aF1.1099999999999741e-07
aF1.110999999999974e-07
aF1.111999999999974e-07
aF1.1129999999999739e-07
aF1.1139999999999738e-07
aF1.1149999999999738e-07
aF1.1159999999999737e-07
aF1.1169999999999737e-07
aF1.1179999999999736e-07
aF1.1189999999999736e-07
aF1.1199999999999735e-07
aF1.1209999999999734e-07
aF1.1219999999999734e-07
aF1.1229999999999733e-07
aF1.1239999999999733e-07
aF1.1249999999999732e-07
aF1.1259999999999732e-07
aF1.1269999999999731e-07
aF1.127999999999973e-07
aF1.128999999999973e-07
aF1.1299999999999729e-07
aF1.1309999999999729e-07
aF1.1319999999999728e-07
aF1.1329999999999728e-07
aF1.1339999999999727e-07
aF1.1349999999999726e-07
aF1.1359999999999726e-07
aF1.1369999999999725e-07
aF1.1379999999999725e-07
aF1.1389999999999724e-07
aF1.1399999999999724e-07
aF1.1409999999999723e-07
aF1.1419999999999722e-07
aF1.1429999999999722e-07
aF1.1439999999999721e-07
aF1.1449999999999721e-07
aF1.145999999999972e-07
aF1.146999999999972e-07
aF1.1479999999999719e-07
aF1.1489999999999718e-07
aF1.1499999999999718e-07
aF1.1509999999999717e-07
aF1.1519999999999717e-07
aF1.1529999999999716e-07
aF1.1539999999999716e-07
aF1.1549999999999715e-07
aF1.1559999999999714e-07
aF1.1569999999999714e-07
aF1.1579999999999713e-07
aF1.1589999999999713e-07
aF1.1599999999999712e-07
aF1.1609999999999712e-07
aF1.1619999999999711e-07
aF1.162999999999971e-07
aF1.163999999999971e-07
aF1.1649999999999709e-07
aF1.1659999999999709e-07
aF1.1669999999999708e-07
aF1.1679999999999708e-07
aF1.1689999999999707e-07
aF1.1699999999999706e-07
aF1.1709999999999706e-07
aF1.1719999999999705e-07
aF1.1729999999999705e-07
aF1.1739999999999704e-07
aF1.1749999999999704e-07
aF1.1759999999999703e-07
aF1.1769999999999702e-07
aF1.1779999999999702e-07
aF1.1789999999999701e-07
aF1.1799999999999701e-07
aF1.18099999999997e-07
aF1.18199999999997e-07
aF1.1829999999999699e-07
aF1.1839999999999698e-07
aF1.1849999999999698e-07
aF1.1859999999999697e-07
aF1.1869999999999697e-07
aF1.1879999999999696e-07
aF1.1889999999999696e-07
aF1.1899999999999695e-07
aF1.1909999999999694e-07
aF1.1919999999999694e-07
aF1.1929999999999695e-07
aF1.1939999999999695e-07
aF1.1949999999999696e-07
aF1.1959999999999697e-07
aF1.1969999999999698e-07
aF1.1979999999999698e-07
aF1.19899999999997e-07
aF1.19999999999997e-07
aF1.20099999999997e-07
aF1.20199999999997e-07
aF1.2029999999999702e-07
aF1.2039999999999703e-07
aF1.2049999999999704e-07
aF1.2059999999999704e-07
aF1.2069999999999705e-07
aF1.2079999999999706e-07
aF1.2089999999999707e-07
aF1.2099999999999707e-07
aF1.2109999999999708e-07
aF1.211999999999971e-07
aF1.212999999999971e-07
aF1.213999999999971e-07
aF1.214999999999971e-07
aF1.2159999999999712e-07
aF1.2169999999999713e-07
aF1.2179999999999713e-07
aF1.2189999999999714e-07
aF1.2199999999999715e-07
aF1.2209999999999716e-07
aF1.2219999999999716e-07
aF1.2229999999999717e-07
aF1.2239999999999718e-07
aF1.2249999999999719e-07
aF1.225999999999972e-07
aF1.226999999999972e-07
aF1.227999999999972e-07
aF1.2289999999999722e-07
aF1.2299999999999722e-07
aF1.2309999999999723e-07
aF1.2319999999999724e-07
aF1.2329999999999725e-07
aF1.2339999999999725e-07
aF1.2349999999999726e-07
aF1.2359999999999727e-07
aF1.2369999999999728e-07
aF1.2379999999999728e-07
aF1.238999999999973e-07
aF1.239999999999973e-07
aF1.240999999999973e-07
aF1.2419999999999731e-07
aF1.2429999999999732e-07
aF1.2439999999999733e-07
aF1.2449999999999734e-07
aF1.2459999999999734e-07
aF1.2469999999999735e-07
aF1.2479999999999736e-07
aF1.2489999999999737e-07
aF1.2499999999999737e-07
aF1.2509999999999738e-07
aF1.251999999999974e-07
aF1.252999999999974e-07
aF1.253999999999974e-07
aF1.254999999999974e-07
aF1.2559999999999742e-07
aF1.2569999999999743e-07
aF1.2579999999999743e-07
aF1.2589999999999744e-07
aF1.2599999999999745e-07
aF1.2609999999999746e-07
aF1.2619999999999746e-07
aF1.2629999999999747e-07
aF1.2639999999999748e-07
aF1.2649999999999749e-07
aF1.265999999999975e-07
aF1.266999999999975e-07
aF1.267999999999975e-07
aF1.2689999999999752e-07
aF1.2699999999999752e-07
aF1.2709999999999753e-07
aF1.2719999999999754e-07
aF1.2729999999999755e-07
aF1.2739999999999755e-07
aF1.2749999999999756e-07
aF1.2759999999999757e-07
aF1.2769999999999758e-07
aF1.2779999999999758e-07
aF1.278999999999976e-07
aF1.279999999999976e-07
aF1.280999999999976e-07
aF1.2819999999999761e-07
aF1.2829999999999762e-07
aF1.2839999999999763e-07
aF1.2849999999999764e-07
aF1.2859999999999764e-07
aF1.2869999999999765e-07
aF1.2879999999999766e-07
aF1.2889999999999767e-07
aF1.2899999999999767e-07
aF1.2909999999999768e-07
aF1.291999999999977e-07
aF1.292999999999977e-07
aF1.293999999999977e-07
aF1.294999999999977e-07
aF1.2959999999999772e-07
aF1.2969999999999773e-07
aF1.2979999999999773e-07
aF1.2989999999999774e-07
aF1.2999999999999775e-07
aF1.3009999999999776e-07
aF1.3019999999999776e-07
aF1.3029999999999777e-07
aF1.3039999999999778e-07
aF1.304999999999978e-07
aF1.305999999999978e-07
aF1.306999999999978e-07
aF1.307999999999978e-07
aF1.3089999999999782e-07
aF1.3099999999999782e-07
aF1.3109999999999783e-07
aF1.3119999999999784e-07
aF1.3129999999999785e-07
aF1.3139999999999785e-07
aF1.3149999999999786e-07
aF1.3159999999999787e-07
aF1.3169999999999788e-07
aF1.3179999999999788e-07
aF1.318999999999979e-07
aF1.319999999999979e-07
aF1.320999999999979e-07
aF1.3219999999999791e-07
aF1.3229999999999792e-07
aF1.3239999999999793e-07
aF1.3249999999999794e-07
aF1.3259999999999794e-07
aF1.3269999999999795e-07
aF1.3279999999999796e-07
aF1.3289999999999797e-07
aF1.3299999999999797e-07
aF1.3309999999999798e-07
aF1.33199999999998e-07
aF1.33299999999998e-07
aF1.33399999999998e-07
aF1.33499999999998e-07
aF1.3359999999999802e-07
aF1.3369999999999803e-07
aF1.3379999999999803e-07
aF1.3389999999999804e-07
aF1.3399999999999805e-07
aF1.3409999999999806e-07
aF1.3419999999999807e-07
aF1.3429999999999807e-07
aF1.3439999999999808e-07
aF1.344999999999981e-07
aF1.345999999999981e-07
aF1.346999999999981e-07
aF1.347999999999981e-07
aF1.3489999999999812e-07
aF1.3499999999999813e-07
aF1.3509999999999813e-07
aF1.3519999999999814e-07
aF1.3529999999999815e-07
aF1.3539999999999816e-07
aF1.3549999999999816e-07
aF1.3559999999999817e-07
aF1.3569999999999818e-07
aF1.3579999999999819e-07
aF1.358999999999982e-07
aF1.359999999999982e-07
aF1.360999999999982e-07
aF1.3619999999999822e-07
aF1.3629999999999822e-07
aF1.3639999999999823e-07
aF1.3649999999999824e-07
aF1.3659999999999825e-07
aF1.3669999999999825e-07
aF1.3679999999999826e-07
aF1.3689999999999827e-07
aF1.3699999999999828e-07
aF1.3709999999999828e-07
aF1.371999999999983e-07
aF1.372999999999983e-07
aF1.373999999999983e-07
aF1.374999999999983e-07
aF1.3759999999999832e-07
aF1.3769999999999833e-07
aF1.3779999999999834e-07
aF1.3789999999999834e-07
aF1.3799999999999835e-07
aF1.3809999999999836e-07
aF1.3819999999999837e-07
aF1.3829999999999837e-07
aF1.3839999999999838e-07
aF1.384999999999984e-07
aF1.385999999999984e-07
aF1.386999999999984e-07
aF1.387999999999984e-07
aF1.3889999999999842e-07
aF1.3899999999999843e-07
aF1.3909999999999843e-07
aF1.3919999999999844e-07
aF1.3929999999999845e-07
aF1.3939999999999846e-07
aF1.3949999999999846e-07
aF1.3959999999999847e-07
aF1.3969999999999848e-07
aF1.3979999999999849e-07
aF1.398999999999985e-07
aF1.399999999999985e-07
aF1.400999999999985e-07
aF1.4019999999999852e-07
aF1.4029999999999852e-07
aF1.4039999999999853e-07
aF1.4049999999999854e-07
aF1.4059999999999855e-07
aF1.4069999999999855e-07
aF1.4079999999999856e-07
aF1.4089999999999857e-07
aF1.4099999999999858e-07
aF1.4109999999999858e-07
aF1.411999999999986e-07
aF1.412999999999986e-07
aF1.413999999999986e-07
aF1.4149999999999861e-07
aF1.4159999999999862e-07
aF1.4169999999999863e-07
aF1.4179999999999864e-07
aF1.4189999999999864e-07
aF1.4199999999999865e-07
aF1.4209999999999866e-07
aF1.4219999999999867e-07
aF1.4229999999999867e-07
aF1.4239999999999868e-07
aF1.424999999999987e-07
aF1.425999999999987e-07
aF1.426999999999987e-07
aF1.427999999999987e-07
aF1.4289999999999872e-07
aF1.4299999999999873e-07
aF1.4309999999999873e-07
aF1.4319999999999874e-07
aF1.4329999999999875e-07
aF1.4339999999999876e-07
aF1.4349999999999876e-07
aF1.4359999999999877e-07
aF1.4369999999999878e-07
aF1.4379999999999879e-07
aF1.438999999999988e-07
aF1.439999999999988e-07
aF1.440999999999988e-07
aF1.4419999999999882e-07
aF1.4429999999999882e-07
aF1.4439999999999883e-07
aF1.4449999999999884e-07
aF1.4459999999999885e-07
aF1.4469999999999885e-07
aF1.4479999999999886e-07
aF1.4489999999999887e-07
aF1.4499999999999888e-07
aF1.4509999999999888e-07
aF1.451999999999989e-07
aF1.452999999999989e-07
aF1.453999999999989e-07
aF1.4549999999999891e-07
aF1.4559999999999892e-07
aF1.4569999999999893e-07
aF1.4579999999999894e-07
aF1.4589999999999894e-07
aF1.4599999999999895e-07
aF1.4609999999999896e-07
aF1.4619999999999897e-07
aF1.4629999999999897e-07
aF1.4639999999999898e-07
aF1.46499999999999e-07
aF1.46599999999999e-07
aF1.46699999999999e-07
aF1.46799999999999e-07
aF1.4689999999999902e-07
aF1.4699999999999903e-07
aF1.4709999999999903e-07
aF1.4719999999999904e-07
aF1.4729999999999905e-07
aF1.4739999999999906e-07
aF1.4749999999999906e-07
aF1.4759999999999907e-07
aF1.4769999999999908e-07
aF1.477999999999991e-07
aF1.478999999999991e-07
aF1.479999999999991e-07
aF1.480999999999991e-07
aF1.4819999999999912e-07
aF1.4829999999999912e-07
aF1.4839999999999913e-07
aF1.4849999999999914e-07
aF1.4859999999999915e-07
aF1.4869999999999915e-07
aF1.4879999999999916e-07
aF1.4889999999999917e-07
aF1.4899999999999918e-07
aF1.4909999999999918e-07
aF1.491999999999992e-07
aF1.492999999999992e-07
aF1.493999999999992e-07
aF1.4949999999999921e-07
aF1.4959999999999922e-07
aF1.4969999999999923e-07
aF1.4979999999999924e-07
aF1.4989999999999924e-07
aF1.4999999999999925e-07
aF1.5009999999999926e-07
aF1.5019999999999927e-07
aF1.5029999999999927e-07
aF1.5039999999999928e-07
aF1.504999999999993e-07
aF1.505999999999993e-07
aF1.506999999999993e-07
aF1.507999999999993e-07
aF1.5089999999999932e-07
aF1.5099999999999933e-07
aF1.5109999999999933e-07
aF1.5119999999999934e-07
aF1.5129999999999935e-07
aF1.5139999999999936e-07
aF1.5149999999999936e-07
aF1.5159999999999937e-07
aF1.5169999999999938e-07
aF1.517999999999994e-07
aF1.518999999999994e-07
aF1.519999999999994e-07
aF1.520999999999994e-07
aF1.5219999999999942e-07
aF1.5229999999999942e-07
aF1.5239999999999943e-07
aF1.5249999999999944e-07
aF1.5259999999999945e-07
aF1.5269999999999945e-07
aF1.5279999999999946e-07
aF1.5289999999999947e-07
aF1.5299999999999948e-07
aF1.5309999999999948e-07
aF1.531999999999995e-07
aF1.532999999999995e-07
aF1.533999999999995e-07
aF1.5349999999999952e-07
aF1.5359999999999952e-07
aF1.5369999999999953e-07
aF1.5379999999999954e-07
aF1.5389999999999955e-07
aF1.5399999999999955e-07
aF1.5409999999999956e-07
aF1.5419999999999957e-07
aF1.5429999999999958e-07
aF1.5439999999999958e-07
aF1.544999999999996e-07
aF1.545999999999996e-07
aF1.546999999999996e-07
aF1.547999999999996e-07
aF1.5489999999999962e-07
aF1.5499999999999963e-07
aF1.5509999999999964e-07
aF1.5519999999999964e-07
aF1.5529999999999965e-07
aF1.5539999999999966e-07
aF1.5549999999999967e-07
aF1.5559999999999967e-07
aF1.5569999999999968e-07
aF1.557999999999997e-07
aF1.558999999999997e-07
aF1.559999999999997e-07
aF1.560999999999997e-07
aF1.5619999999999972e-07
aF1.5629999999999973e-07
aF1.5639999999999973e-07
aF1.5649999999999974e-07
aF1.5659999999999975e-07
aF1.5669999999999976e-07
aF1.5679999999999976e-07
aF1.5689999999999977e-07
aF1.5699999999999978e-07
aF1.5709999999999979e-07
aF1.571999999999998e-07
aF1.572999999999998e-07
aF1.573999999999998e-07
aF1.5749999999999982e-07
aF1.5759999999999982e-07
aF1.5769999999999983e-07
aF1.5779999999999984e-07
aF1.5789999999999985e-07
aF1.5799999999999985e-07
aF1.5809999999999986e-07
aF1.5819999999999987e-07
aF1.5829999999999988e-07
aF1.5839999999999988e-07
aF1.584999999999999e-07
aF1.585999999999999e-07
aF1.586999999999999e-07
aF1.587999999999999e-07
aF1.5889999999999992e-07
aF1.5899999999999993e-07
aF1.5909999999999994e-07
aF1.5919999999999994e-07
aF1.5929999999999995e-07
aF1.5939999999999996e-07
aF1.5949999999999997e-07
aF1.5959999999999997e-07
aF1.5969999999999998e-07
aF1.598e-07
aF1.599e-07
aF1.6e-07
aF1.601e-07
aF1.6020000000000002e-07
aF1.6030000000000003e-07
aF1.6040000000000003e-07
aF1.6050000000000004e-07
aF1.6060000000000005e-07
aF1.6070000000000006e-07
aF1.6080000000000006e-07
aF1.6090000000000007e-07
aF1.6100000000000008e-07
aF1.6110000000000009e-07
aF1.612000000000001e-07
aF1.613000000000001e-07
aF1.614000000000001e-07
aF1.6150000000000012e-07
aF1.6160000000000012e-07
aF1.6170000000000013e-07
aF1.6180000000000014e-07
aF1.6190000000000015e-07
aF1.6200000000000015e-07
aF1.6210000000000016e-07
aF1.6220000000000017e-07
aF1.6230000000000018e-07
aF1.6240000000000018e-07
aF1.625000000000002e-07
aF1.626000000000002e-07
aF1.627000000000002e-07
aF1.6280000000000021e-07
aF1.6290000000000022e-07
aF1.6300000000000023e-07
aF1.6310000000000024e-07
aF1.6320000000000024e-07
aF1.6330000000000025e-07
aF1.6340000000000026e-07
aF1.6350000000000027e-07
aF1.6360000000000027e-07
aF1.6370000000000028e-07
aF1.638000000000003e-07
aF1.639000000000003e-07
aF1.640000000000003e-07
aF1.641000000000003e-07
aF1.6420000000000032e-07
aF1.6430000000000033e-07
aF1.6440000000000033e-07
aF1.6450000000000034e-07
aF1.6460000000000035e-07
aF1.6470000000000036e-07
aF1.6480000000000036e-07
aF1.6490000000000037e-07
aF1.6500000000000038e-07
aF1.6510000000000039e-07
aF1.652000000000004e-07
aF1.653000000000004e-07
aF1.654000000000004e-07
aF1.6550000000000042e-07
aF1.6560000000000042e-07
aF1.6570000000000043e-07
aF1.6580000000000044e-07
aF1.6590000000000045e-07
aF1.6600000000000045e-07
aF1.6610000000000046e-07
aF1.6620000000000047e-07
aF1.6630000000000048e-07
aF1.6640000000000048e-07
aF1.665000000000005e-07
aF1.666000000000005e-07
aF1.667000000000005e-07
aF1.6680000000000051e-07
aF1.6690000000000052e-07
aF1.6700000000000053e-07
aF1.6710000000000054e-07
aF1.6720000000000054e-07
aF1.6730000000000055e-07
aF1.6740000000000056e-07
aF1.6750000000000057e-07
aF1.6760000000000057e-07
aF1.6770000000000058e-07
aF1.678000000000006e-07
aF1.679000000000006e-07
aF1.680000000000006e-07
aF1.681000000000006e-07
aF1.6820000000000062e-07
aF1.6830000000000063e-07
aF1.6840000000000063e-07
aF1.6850000000000064e-07
aF1.6860000000000065e-07
aF1.6870000000000066e-07
aF1.6880000000000066e-07
aF1.6890000000000067e-07
aF1.6900000000000068e-07
aF1.691000000000007e-07
aF1.692000000000007e-07
aF1.693000000000007e-07
aF1.694000000000007e-07
aF1.6950000000000072e-07
aF1.6960000000000072e-07
aF1.6970000000000073e-07
aF1.6980000000000074e-07
aF1.6990000000000075e-07
aF1.7000000000000075e-07
aF1.7010000000000076e-07
aF1.7020000000000077e-07
aF1.7030000000000078e-07
aF1.7040000000000078e-07
aF1.705000000000008e-07
aF1.706000000000008e-07
aF1.707000000000008e-07
aF1.7080000000000081e-07
aF1.7090000000000082e-07
aF1.7100000000000083e-07
aF1.7110000000000084e-07
aF1.7120000000000084e-07
aF1.7130000000000085e-07
aF1.7140000000000086e-07
aF1.7150000000000087e-07
aF1.7160000000000087e-07
aF1.7170000000000088e-07
aF1.718000000000009e-07
aF1.719000000000009e-07
aF1.720000000000009e-07
aF1.721000000000009e-07
aF1.7220000000000092e-07
aF1.7230000000000093e-07
aF1.7240000000000093e-07
aF1.7250000000000094e-07
aF1.7260000000000095e-07
aF1.7270000000000096e-07
aF1.7280000000000096e-07
aF1.7290000000000097e-07
aF1.7300000000000098e-07
aF1.73100000000001e-07
aF1.73200000000001e-07
aF1.73300000000001e-07
aF1.73400000000001e-07
aF1.7350000000000102e-07
aF1.7360000000000103e-07
aF1.7370000000000103e-07
aF1.7380000000000104e-07
aF1.7390000000000105e-07
aF1.7400000000000106e-07
aF1.7410000000000106e-07
aF1.7420000000000107e-07
aF1.7430000000000108e-07
aF1.7440000000000109e-07
aF1.745000000000011e-07
aF1.746000000000011e-07
aF1.747000000000011e-07
aF1.7480000000000112e-07
aF1.7490000000000112e-07
aF1.7500000000000113e-07
aF1.7510000000000114e-07
aF1.7520000000000115e-07
aF1.7530000000000115e-07
aF1.7540000000000116e-07
aF1.7550000000000117e-07
aF1.7560000000000118e-07
aF1.7570000000000118e-07
aF1.758000000000012e-07
aF1.759000000000012e-07
aF1.760000000000012e-07
aF1.761000000000012e-07
aF1.7620000000000122e-07
aF1.7630000000000123e-07
aF1.7640000000000124e-07
aF1.7650000000000124e-07
aF1.7660000000000125e-07
aF1.7670000000000126e-07
aF1.7680000000000127e-07
aF1.7690000000000127e-07
aF1.7700000000000128e-07
aF1.771000000000013e-07
aF1.772000000000013e-07
aF1.773000000000013e-07
aF1.774000000000013e-07
aF1.7750000000000132e-07
aF1.7760000000000133e-07
aF1.7770000000000133e-07
aF1.7780000000000134e-07
aF1.7790000000000135e-07
aF1.7800000000000136e-07
aF1.7810000000000136e-07
aF1.7820000000000137e-07
aF1.7830000000000138e-07
aF1.7840000000000139e-07
aF1.785000000000014e-07
aF1.786000000000014e-07
aF1.787000000000014e-07
aF1.7880000000000142e-07
aF1.7890000000000142e-07
aF1.7900000000000143e-07
aF1.7910000000000144e-07
aF1.7920000000000145e-07
aF1.7930000000000145e-07
aF1.7940000000000146e-07
aF1.7950000000000147e-07
aF1.7960000000000148e-07
aF1.7970000000000148e-07
aF1.798000000000015e-07
aF1.799000000000015e-07
aF1.800000000000015e-07
aF1.8010000000000151e-07
aF1.8020000000000152e-07
aF1.8030000000000153e-07
aF1.8040000000000154e-07
aF1.8050000000000154e-07
aF1.8060000000000155e-07
aF1.8070000000000156e-07
aF1.8080000000000157e-07
aF1.8090000000000157e-07
aF1.8100000000000158e-07
aF1.811000000000016e-07
aF1.812000000000016e-07
aF1.813000000000016e-07
aF1.814000000000016e-07
aF1.8150000000000162e-07
aF1.8160000000000163e-07
aF1.8170000000000163e-07
aF1.8180000000000164e-07
aF1.8190000000000165e-07
aF1.8200000000000166e-07
aF1.8210000000000166e-07
aF1.8220000000000167e-07
aF1.8230000000000168e-07
aF1.8240000000000169e-07
aF1.825000000000017e-07
aF1.826000000000017e-07
aF1.827000000000017e-07
aF1.8280000000000172e-07
aF1.8290000000000172e-07
aF1.8300000000000173e-07
aF1.8310000000000174e-07
aF1.8320000000000175e-07
aF1.8330000000000175e-07
aF1.8340000000000176e-07
aF1.8350000000000177e-07
aF1.8360000000000178e-07
aF1.8370000000000178e-07
aF1.838000000000018e-07
aF1.839000000000018e-07
aF1.840000000000018e-07
aF1.8410000000000181e-07
aF1.8420000000000182e-07
aF1.8430000000000183e-07
aF1.8440000000000184e-07
aF1.8450000000000184e-07
aF1.8460000000000185e-07
aF1.8470000000000186e-07
aF1.8480000000000187e-07
aF1.8490000000000187e-07
aF1.8500000000000188e-07
aF1.851000000000019e-07
aF1.852000000000019e-07
aF1.853000000000019e-07
aF1.854000000000019e-07
aF1.8550000000000192e-07
aF1.8560000000000193e-07
aF1.8570000000000193e-07
aF1.8580000000000194e-07
aF1.8590000000000195e-07
aF1.8600000000000196e-07
aF1.8610000000000196e-07
aF1.8620000000000197e-07
aF1.8630000000000198e-07
aF1.8640000000000199e-07
aF1.86500000000002e-07
aF1.86600000000002e-07
aF1.86700000000002e-07
aF1.8680000000000202e-07
aF1.8690000000000202e-07
aF1.8700000000000203e-07
aF1.8710000000000204e-07
aF1.8720000000000205e-07
aF1.8730000000000205e-07
aF1.8740000000000206e-07
aF1.8750000000000207e-07
aF1.8760000000000208e-07
aF1.8770000000000208e-07
aF1.878000000000021e-07
aF1.879000000000021e-07
aF1.880000000000021e-07
aF1.8810000000000211e-07
aF1.8820000000000212e-07
aF1.8830000000000213e-07
aF1.8840000000000214e-07
aF1.8850000000000214e-07
aF1.8860000000000215e-07
aF1.8870000000000216e-07
aF1.8880000000000217e-07
aF1.8890000000000217e-07
aF1.8900000000000218e-07
aF1.891000000000022e-07
aF1.892000000000022e-07
aF1.893000000000022e-07
aF1.894000000000022e-07
aF1.8950000000000222e-07
aF1.8960000000000223e-07
aF1.8970000000000223e-07
aF1.8980000000000224e-07
aF1.8990000000000225e-07
aF1.9000000000000226e-07
aF1.9010000000000226e-07
aF1.9020000000000227e-07
aF1.9030000000000228e-07
aF1.904000000000023e-07
aF1.905000000000023e-07
aF1.906000000000023e-07
aF1.907000000000023e-07
aF1.9080000000000232e-07
aF1.9090000000000232e-07
aF1.9100000000000233e-07
aF1.9110000000000234e-07
aF1.9120000000000235e-07
aF1.9130000000000235e-07
aF1.9140000000000236e-07
aF1.9150000000000237e-07
aF1.9160000000000238e-07
aF1.9170000000000238e-07
aF1.918000000000024e-07
aF1.919000000000024e-07
aF1.920000000000024e-07
aF1.9210000000000241e-07
aF1.9220000000000242e-07
aF1.9230000000000243e-07
aF1.9240000000000244e-07
aF1.9250000000000245e-07
aF1.9260000000000245e-07
aF1.9270000000000246e-07
aF1.9280000000000247e-07
aF1.9290000000000248e-07
aF1.9300000000000248e-07
aF1.931000000000025e-07
aF1.932000000000025e-07
aF1.933000000000025e-07
aF1.934000000000025e-07
aF1.9350000000000252e-07
aF1.9360000000000253e-07
aF1.9370000000000254e-07
aF1.9380000000000254e-07
aF1.9390000000000255e-07
aF1.9400000000000256e-07
aF1.9410000000000257e-07
aF1.9420000000000257e-07
aF1.9430000000000258e-07
aF1.944000000000026e-07
aF1.945000000000026e-07
aF1.946000000000026e-07
aF1.947000000000026e-07
aF1.9480000000000262e-07
aF1.9490000000000263e-07
aF1.9500000000000263e-07
aF1.9510000000000264e-07
aF1.9520000000000265e-07
aF1.9530000000000266e-07
aF1.9540000000000266e-07
aF1.9550000000000267e-07
aF1.9560000000000268e-07
aF1.9570000000000269e-07
aF1.958000000000027e-07
aF1.959000000000027e-07
aF1.960000000000027e-07
aF1.9610000000000272e-07
aF1.9620000000000272e-07
aF1.9630000000000273e-07
aF1.9640000000000274e-07
aF1.9650000000000275e-07
aF1.9660000000000275e-07
aF1.9670000000000276e-07
aF1.9680000000000277e-07
aF1.9690000000000278e-07
aF1.9700000000000278e-07
aF1.971000000000028e-07
aF1.972000000000028e-07
aF1.973000000000028e-07
aF1.974000000000028e-07
aF1.9750000000000282e-07
aF1.9760000000000283e-07
aF1.9770000000000284e-07
aF1.9780000000000284e-07
aF1.9790000000000285e-07
aF1.9800000000000286e-07
aF1.9810000000000287e-07
aF1.9820000000000287e-07
aF1.9830000000000288e-07
aF1.984000000000029e-07
aF1.985000000000029e-07
aF1.986000000000029e-07
aF1.987000000000029e-07
aF1.9880000000000292e-07
aF1.9890000000000293e-07
aF1.9900000000000293e-07
aF1.9910000000000294e-07
aF1.9920000000000295e-07
aF1.9930000000000296e-07
aF1.9940000000000296e-07
aF1.9950000000000297e-07
aF1.9960000000000298e-07
aF1.9970000000000299e-07
aF1.99800000000003e-07
aF1.99900000000003e-07
aF2.00000000000003e-07
aF2.0010000000000302e-07
aF2.0020000000000302e-07
aF2.0030000000000303e-07
aF2.0040000000000304e-07
aF2.0050000000000305e-07
aF2.0060000000000305e-07
aF2.0070000000000306e-07
aF2.0080000000000307e-07
aF2.0090000000000308e-07
aF2.0100000000000308e-07
aF2.011000000000031e-07
aF2.012000000000031e-07
aF2.013000000000031e-07
aF2.0140000000000311e-07
aF2.0150000000000312e-07
aF2.0160000000000313e-07
aF2.0170000000000314e-07
aF2.0180000000000314e-07
aF2.0190000000000315e-07
aF2.0200000000000316e-07
aF2.0210000000000317e-07
aF2.0220000000000317e-07
aF2.0230000000000318e-07
aF2.024000000000032e-07
aF2.025000000000032e-07
aF2.026000000000032e-07
aF2.027000000000032e-07
aF2.0280000000000322e-07
aF2.0290000000000323e-07
aF2.0300000000000323e-07
a.