(lp0
F1.999999999999991e-06
aF1.0000000000000004e-06
aF1.999999999999991e-06
aF1.0000000000000004e-06
aF1.0000000000000004e-06
aF3.999999999999972e-06
aF4.999999999999962e-06
aF1.999999999999991e-06
aF2.9999999999999814e-06
aF1.999999999999991e-06
aF2.9999999999999814e-06
aF2.9999999999999814e-06
aF1.999999999999991e-06
aF1.0000000000000004e-06
aF1.0000000000000004e-06
aF1.0000000000000004e-06
aF1.999999999999991e-06
aF3.999999999999972e-06
aF4.999999999999962e-06
aF1.0000000000000004e-06
aF1.999999999999991e-06
aF2.9999999999999814e-06
aF1.999999999999991e-06
aF2.9999999999999814e-06
aF4.999999999999962e-06
aF1.999999999999991e-06
aF1.0000000000000004e-06
aF1.999999999999991e-06
aF1.999999999999991e-06
aF1.999999999999991e-06
aF1.999999999999991e-06
aF3.999999999999972e-06
aF3.999999999999972e-06
aF1.0000000000000004e-06
aF3.999999999999972e-06
aF3.999999999999972e-06
aF1.999999999999991e-06
aF1.999999999999991e-06
aF2.9999999999999814e-06
aF1.0000000000000004e-06
aF1.999999999999991e-06
aF2.9999999999999814e-06
aF1.0000000000000004e-06
aF1.0000000000000004e-06
aF3.999999999999972e-06
aF1.0000000000000004e-06
aF2.9999999999999814e-06
aF1.999999999999991e-06
aF1.999999999999991e-06
aF1.0000000000000004e-06
aF2.9999999999999814e-06
aF1.999999999999991e-06
aF1.999999999999991e-06
aF2.9999999999999814e-06
aF1.999999999999991e-06
aF1.999999999999991e-06
aF1.999999999999991e-06
aF1.999999999999991e-06
aF1.999999999999991e-06
aF1.999999999999991e-06
aF2.9999999999999814e-06
aF1.999999999999991e-06
aF1.0000000000000004e-06
aF1.999999999999991e-06
aF2.9999999999999814e-06
aF1.999999999999991e-06
aF1.999999999999991e-06
aF2.9999999999999814e-06
aF1.999999999999991e-06
aF1.0000000000000004e-06
aF1.999999999999991e-06
aF3.999999999999972e-06
aF2.9999999999999814e-06
aF1.999999999999991e-06
aF1.999999999999991e-06
aF1.999999999999991e-06
aF1.999999999999991e-06
aF1.999999999999991e-06
aF1.999999999999991e-06
aF3.999999999999972e-06
aF3.999999999999972e-06
aF1.999999999999991e-06
aF1.0000000000000004e-06
aF1.0000000000000004e-06
aF1.999999999999991e-06
aF1.999999999999991e-06
aF1.999999999999991e-06
aF1.999999999999991e-06
aF1.999999999999991e-06
aF1.999999999999991e-06
aF1.999999999999991e-06
aF2.9999999999999814e-06
aF1.0000000000000004e-06
aF4.999999999999962e-06
aF2.9999999999999814e-06
aF1.999999999999991e-06
aF2.9999999999999814e-06
aF2.9999999999999814e-06
aF1.0000000000000004e-06
aF1.999999999999991e-06
aF1.0000000000000004e-06
aF1.0000000000000004e-06
aF2.9999999999999814e-06
aF1.0000000000000004e-06
aF1.999999999999991e-06
aF1.999999999999991e-06
aF1.999999999999991e-06
aF2.9999999999999814e-06
aF3.999999999999972e-06
aF1.999999999999991e-06
aF1.999999999999991e-06
aF3.999999999999972e-06
aF2.9999999999999814e-06
aF1.999999999999991e-06
aF1.999999999999991e-06
aF1.999999999999991e-06
aF3.999999999999972e-06
aF1.999999999999991e-06
aF2.9999999999999814e-06
aF1.0000000000000004e-06
aF1.999999999999991e-06
aF1.999999999999991e-06
aF1.999999999999991e-06
aF2.9999999999999814e-06
aF1.0000000000000004e-06
aF1.999999999999991e-06
aF1.999999999999991e-06
aF1.0000000000000004e-06
aF1.999999999999991e-06
aF2.9999999999999814e-06
aF2.9999999999999814e-06
aF1.0000000000000004e-06
aF3.999999999999972e-06
aF1.0000000000000004e-06
aF4.999999999999962e-06
aF2.9999999999999814e-06
aF1.0000000000000004e-06
aF2.9999999999999814e-06
aF1.999999999999991e-06
aF3.999999999999972e-06
aF2.9999999999999814e-06
aF3.999999999999972e-06
aF4.999999999999962e-06
aF2.9999999999999814e-06
aF2.9999999999999814e-06
aF1.999999999999991e-06
aF1.999999999999991e-06
aF1.999999999999991e-06
aF1.999999999999991e-06
aF1.0000000000000004e-06
aF1.0000000000000004e-06
aF1.0000000000000004e-06
aF4.999999999999962e-06
aF1.0000000000000004e-06
aF1.0000000000000004e-06
aF1.0000000000000004e-06
aF1.999999999999991e-06
aF3.999999999999972e-06
aF4.999999999999962e-06
aF3.999999999999972e-06
aF1.999999999999991e-06
aF1.0000000000000004e-06
aF1.0000000000000004e-06
aF1.0000000000000004e-06
aF2.9999999999999814e-06
aF1.999999999999991e-06
aF1.999999999999991e-06
aF1.0000000000000004e-06
aF2.9999999999999814e-06
aF1.0000000000000004e-06
aF1.999999999999991e-06
aF1.999999999999991e-06
aF1.999999999999991e-06
aF2.9999999999999814e-06
aF2.9999999999999814e-06
aF1.0000000000000004e-06
aF2.9999999999999814e-06
aF2.9999999999999814e-06
aF2.9999999999999814e-06
aF2.9999999999999814e-06
aF1.999999999999991e-06
aF1.999999999999991e-06
aF1.999999999999991e-06
aF1.999999999999991e-06
aF3.999999999999972e-06
aF3.999999999999972e-06
aF1.0000000000000004e-06
aF2.9999999999999814e-06
aF2.9999999999999814e-06
aF3.999999999999972e-06
aF1.0000000000000004e-06
aF2.9999999999999814e-06
aF1.0000000000000004e-06
aF1.0000000000000004e-06
aF1.0000000000000004e-06
aF4.999999999999962e-06
aF2.9999999999999814e-06
aF2.9999999999999814e-06
aF2.9999999999999814e-06
aF2.9999999999999814e-06
aF1.999999999999991e-06
aF1.999999999999991e-06
aF1.999999999999991e-06
aF1.999999999999991e-06
aF1.0000000000000004e-06
aF2.9999999999999814e-06
aF2.9999999999999814e-06
aF1.999999999999991e-06
aF2.9999999999999814e-06
aF3.999999999999972e-06
aF1.999999999999991e-06
aF1.999999999999991e-06
aF1.999999999999991e-06
aF1.999999999999991e-06
aF1.0000000000000004e-06
aF1.999999999999991e-06
aF1.0000000000000004e-06
aF1.999999999999991e-06
aF2.9999999999999814e-06
aF2.9999999999999814e-06
aF1.999999999999991e-06
aF1.0000000000000004e-06
aF2.9999999999999814e-06
aF1.999999999999991e-06
aF1.0000000000000004e-06
aF1.999999999999991e-06
aF2.9999999999999814e-06
aF1.999999999999991e-06
aF2.9999999999999814e-06
aF2.9999999999999814e-06
aF1.999999999999991e-06
aF1.999999999999991e-06
aF1.0000000000000004e-06
aF1.999999999999991e-06
aF2.9999999999999814e-06
aF1.0000000000000004e-06
aF1.999999999999991e-06
aF1.999999999999991e-06
aF1.999999999999991e-06
aF1.0000000000000004e-06
aF1.999999999999991e-06
aF4.999999999999962e-06
aF3.999999999999972e-06
aF4.999999999999962e-06
aF1.999999999999991e-06
aF1.999999999999991e-06
aF1.999999999999991e-06
aF1.999999999999991e-06
aF1.999999999999991e-06
aF1.0000000000000004e-06
aF1.0000000000000004e-06
aF4.999999999999962e-06
aF2.9999999999999814e-06
aF2.9999999999999814e-06
aF1.999999999999991e-06
aF1.999999999999991e-06
aF2.9999999999999814e-06
aF3.999999999999972e-06
aF1.999999999999991e-06
aF1.999999999999991e-06
aF1.999999999999991e-06
aF2.9999999999999814e-06
aF1.999999999999991e-06
aF2.9999999999999814e-06
aF1.999999999999991e-06
aF1.0000000000000004e-06
aF1.0000000000000004e-06
aF2.9999999999999814e-06
aF1.0000000000000004e-06
aF1.999999999999991e-06
aF1.999999999999991e-06
aF1.999999999999991e-06
aF1.999999999999991e-06
aF1.999999999999991e-06
aF1.999999999999991e-06
aF1.999999999999991e-06
aF1.999999999999991e-06
aF1.999999999999991e-06
aF3.999999999999972e-06
aF1.0000000000000004e-06
aF3.999999999999972e-06
aF2.9999999999999814e-06
aF2.9999999999999814e-06
aF1.0000000000000004e-06
aF1.999999999999991e-06
aF1.0000000000000004e-06
aF2.9999999999999814e-06
aF1.0000000000000004e-06
aF1.999999999999991e-06
aF1.0000000000000004e-06
aF1.999999999999991e-06
aF2.9999999999999814e-06
aF1.999999999999991e-06
aF1.999999999999991e-06
aF1.999999999999991e-06
aF1.999999999999991e-06
aF1.0000000000000004e-06
aF1.0000000000000004e-06
aF1.0000000000000004e-06
aF2.9999999999999814e-06
aF3.999999999999972e-06
aF4.999999999999962e-06
aF1.999999999999991e-06
aF2.9999999999999814e-06
aF3.999999999999972e-06
aF1.0000000000000004e-06
aF3.999999999999972e-06
aF1.0000000000000004e-06
aF1.999999999999991e-06
aF1.999999999999991e-06
aF1.999999999999991e-06
aF1.0000000000000004e-06
aF2.9999999999999814e-06
aF1.999999999999991e-06
aF1.999999999999991e-06
aF1.999999999999991e-06
aF1.999999999999991e-06
aF1.999999999999991e-06
aF3.999999999999972e-06
aF1.0000000000000004e-06
aF1.999999999999991e-06
aF1.0000000000000004e-06
aF2.9999999999999814e-06
aF1.0000000000000004e-06
aF2.9999999999999814e-06
aF3.999999999999972e-06
aF2.9999999999999814e-06
aF1.0000000000000004e-06
aF1.0000000000000004e-06
aF1.0000000000000004e-06
aF2.9999999999999814e-06
aF2.9999999999999814e-06
aF3.999999999999972e-06
aF2.9999999999999814e-06
aF2.9999999999999814e-06
aF1.0000000000000004e-06
aF1.999999999999991e-06
aF2.9999999999999814e-06
aF3.999999999999972e-06
aF1.0000000000000004e-06
aF2.9999999999999814e-06
aF3.999999999999972e-06
aF1.0000000000000004e-06
aF1.0000000000000004e-06
aF1.0000000000000004e-06
aF1.999999999999991e-06
aF1.0000000000000004e-06
aF1.0000000000000004e-06
aF3.999999999999972e-06
aF1.0000000000000004e-06
aF2.9999999999999814e-06
aF1.999999999999991e-06
aF3.999999999999972e-06
aF2.9999999999999814e-06
aF2.9999999999999814e-06
aF2.9999999999999814e-06
aF1.0000000000000004e-06
aF1.0000000000000004e-06
aF1.999999999999991e-06
aF1.0000000000000004e-06
aF3.999999999999972e-06
aF1.999999999999991e-06
aF1.999999999999991e-06
aF2.9999999999999814e-06
aF1.999999999999991e-06
aF4.999999999999962e-06
aF1.0000000000000004e-06
aF3.999999999999972e-06
aF2.9999999999999814e-06
aF4.999999999999962e-06
aF2.9999999999999814e-06
aF1.0000000000000004e-06
aF1.999999999999991e-06
aF3.999999999999972e-06
aF1.999999999999991e-06
aF2.9999999999999814e-06
aF1.999999999999991e-06
aF1.0000000000000004e-06
aF1.0000000000000004e-06
aF1.999999999999991e-06
aF1.0000000000000004e-06
aF2.9999999999999814e-06
aF1.0000000000000004e-06
aF3.999999999999972e-06
aF2.9999999999999814e-06
aF2.9999999999999814e-06
aF1.999999999999991e-06
aF2.9999999999999814e-06
aF1.0000000000000004e-06
aF1.999999999999991e-06
aF1.999999999999991e-06
aF1.999999999999991e-06
aF1.999999999999991e-06
aF1.0000000000000004e-06
aF1.0000000000000004e-06
aF3.999999999999972e-06
aF2.9999999999999814e-06
aF1.0000000000000004e-06
aF1.999999999999991e-06
aF1.0000000000000004e-06
aF1.999999999999991e-06
aF1.999999999999991e-06
aF1.999999999999991e-06
aF2.9999999999999814e-06
aF1.999999999999991e-06
aF3.999999999999972e-06
aF1.0000000000000004e-06
aF1.999999999999991e-06
aF1.999999999999991e-06
aF1.999999999999991e-06
aF1.0000000000000004e-06
aF2.9999999999999814e-06
aF1.0000000000000004e-06
aF4.999999999999962e-06
aF1.0000000000000004e-06
aF1.0000000000000004e-06
aF1.0000000000000004e-06
aF3.999999999999972e-06
aF1.0000000000000004e-06
aF1.0000000000000004e-06
aF1.999999999999991e-06
aF1.999999999999991e-06
aF1.999999999999991e-06
aF1.999999999999991e-06
aF1.999999999999991e-06
aF2.9999999999999814e-06
aF1.0000000000000004e-06
aF2.9999999999999814e-06
aF2.9999999999999814e-06
aF1.0000000000000004e-06
aF3.999999999999972e-06
aF1.999999999999991e-06
aF1.0000000000000004e-06
aF1.999999999999991e-06
aF3.999999999999972e-06
aF5.999999999999953e-06
a.