(lp0
F1.0000000000000004e-06
aF1.999999999999991e-06
aF1.0000000000000004e-06
aF1.0000000000000004e-06
aF1.0000000000000004e-06
aF1.0000000000000004e-06
aF2.9999999999999814e-06
aF1.0000000000000004e-06
aF1.0000000000000004e-06
aF1.999999999999991e-06
aF1.0000000000000004e-06
aF1.999999999999991e-06
aF1.0000000000000004e-06
aF3.999999999999972e-06
aF1.999999999999991e-06
aF1.999999999999991e-06
aF1.999999999999991e-06
aF1.0000000000000004e-06
aF2.9999999999999814e-06
aF1.0000000000000004e-06
aF1.0000000000000004e-06
aF1.0000000000000004e-06
aF1.0000000000000004e-06
aF1.999999999999991e-06
aF1.0000000000000004e-06
aF1.999999999999991e-06
aF1.999999999999991e-06
aF1.999999999999991e-06
aF1.0000000000000004e-06
aF1.0000000000000004e-06
aF1.999999999999991e-06
aF1.0000000000000004e-06
aF1.0000000000000004e-06
aF1.0000000000000004e-06
aF1.0000000000000004e-06
aF2.9999999999999814e-06
aF1.999999999999991e-06
aF1.0000000000000004e-06
aF1.0000000000000004e-06
aF1.999999999999991e-06
aF1.0000000000000004e-06
aF1.0000000000000004e-06
aF1.0000000000000004e-06
aF2.9999999999999814e-06
aF1.0000000000000004e-06
aF1.999999999999991e-06
aF1.0000000000000004e-06
aF1.999999999999991e-06
aF1.999999999999991e-06
aF1.0000000000000004e-06
aF2.9999999999999814e-06
aF1.999999999999991e-06
aF1.0000000000000004e-06
aF2.9999999999999814e-06
aF1.0000000000000004e-06
aF1.0000000000000004e-06
aF1.0000000000000004e-06
aF1.999999999999991e-06
aF1.999999999999991e-06
aF1.0000000000000004e-06
aF1.0000000000000004e-06
aF1.0000000000000004e-06
aF1.999999999999991e-06
aF1.0000000000000004e-06
aF1.0000000000000004e-06
aF1.0000000000000004e-06
aF1.0000000000000004e-06
aF1.0000000000000004e-06
aF1.999999999999991e-06
aF1.0000000000000004e-06
aF1.0000000000000004e-06
aF1.999999999999991e-06
aF1.0000000000000004e-06
aF2.9999999999999814e-06
aF2.9999999999999814e-06
aF1.999999999999991e-06
aF1.0000000000000004e-06
aF1.0000000000000004e-06
aF1.999999999999991e-06
aF1.999999999999991e-06
aF1.0000000000000004e-06
aF1.999999999999991e-06
aF1.0000000000000004e-06
aF1.999999999999991e-06
aF1.999999999999991e-06
aF1.999999999999991e-06
aF1.999999999999991e-06
aF1.999999999999991e-06
aF1.999999999999991e-06
aF2.9999999999999814e-06
aF1.0000000000000004e-06
aF1.999999999999991e-06
aF1.0000000000000004e-06
aF1.999999999999991e-06
aF1.0000000000000004e-06
aF2.9999999999999814e-06
aF1.999999999999991e-06
aF1.0000000000000004e-06
aF1.0000000000000004e-06
aF1.0000000000000004e-06
aF1.999999999999991e-06
aF1.999999999999991e-06
aF1.0000000000000004e-06
aF1.0000000000000004e-06
aF1.999999999999991e-06
aF1.999999999999991e-06
aF1.0000000000000004e-06
aF1.999999999999991e-06
aF1.0000000000000004e-06
aF1.0000000000000004e-06
aF1.0000000000000004e-06
aF1.999999999999991e-06
aF1.0000000000000004e-06
aF1.0000000000000004e-06
aF1.0000000000000004e-06
aF1.0000000000000004e-06
aF1.999999999999991e-06
aF1.999999999999991e-06
aF1.999999999999991e-06
aF1.999999999999991e-06
aF1.0000000000000004e-06
aF1.0000000000000004e-06
aF1.999999999999991e-06
aF1.0000000000000004e-06
aF1.0000000000000004e-06
aF1.0000000000000004e-06
aF1.999999999999991e-06
aF1.999999999999991e-06
aF2.9999999999999814e-06
aF1.0000000000000004e-06
aF1.999999999999991e-06
aF1.999999999999991e-06
aF1.999999999999991e-06
aF2.9999999999999814e-06
aF1.999999999999991e-06
aF1.0000000000000004e-06
aF1.0000000000000004e-06
aF1.0000000000000004e-06
aF1.0000000000000004e-06
aF1.0000000000000004e-06
aF1.0000000000000004e-06
aF1.0000000000000004e-06
aF1.0000000000000004e-06
aF1.999999999999991e-06
aF1.0000000000000004e-06
aF2.9999999999999814e-06
aF1.999999999999991e-06
aF1.999999999999991e-06
aF1.0000000000000004e-06
aF1.0000000000000004e-06
aF1.0000000000000004e-06
aF1.0000000000000004e-06
aF1.999999999999991e-06
aF1.0000000000000004e-06
aF1.999999999999991e-06
aF1.999999999999991e-06
aF1.999999999999991e-06
aF1.999999999999991e-06
aF1.0000000000000004e-06
aF1.999999999999991e-06
aF1.0000000000000004e-06
aF1.0000000000000004e-06
aF1.0000000000000004e-06
aF2.9999999999999814e-06
aF2.9999999999999814e-06
aF1.0000000000000004e-06
aF1.0000000000000004e-06
aF1.999999999999991e-06
aF1.999999999999991e-06
aF1.999999999999991e-06
aF1.0000000000000004e-06
aF1.999999999999991e-06
aF1.999999999999991e-06
aF2.9999999999999814e-06
aF1.0000000000000004e-06
aF1.0000000000000004e-06
aF1.0000000000000004e-06
aF1.0000000000000004e-06
aF1.0000000000000004e-06
aF1.0000000000000004e-06
aF1.999999999999991e-06
aF1.999999999999991e-06
aF1.0000000000000004e-06
aF1.0000000000000004e-06
aF1.999999999999991e-06
aF1.999999999999991e-06
aF1.0000000000000004e-06
aF3.999999999999972e-06
aF1.0000000000000004e-06
aF1.999999999999991e-06
aF1.0000000000000004e-06
aF1.999999999999991e-06
aF1.0000000000000004e-06
aF1.999999999999991e-06
aF1.0000000000000004e-06
aF1.0000000000000004e-06
aF1.0000000000000004e-06
aF1.0000000000000004e-06
aF1.999999999999991e-06
aF1.0000000000000004e-06
aF1.999999999999991e-06
aF1.0000000000000004e-06
aF1.999999999999991e-06
aF1.999999999999991e-06
aF1.0000000000000004e-06
aF1.0000000000000004e-06
aF2.9999999999999814e-06
aF1.0000000000000004e-06
aF1.0000000000000004e-06
aF1.999999999999991e-06
aF1.0000000000000004e-06
aF1.0000000000000004e-06
aF1.0000000000000004e-06
aF2.9999999999999814e-06
aF1.0000000000000004e-06
aF1.999999999999991e-06
aF1.999999999999991e-06
aF1.999999999999991e-06
aF1.999999999999991e-06
aF1.0000000000000004e-06
aF1.999999999999991e-06
aF1.999999999999991e-06
aF1.0000000000000004e-06
aF1.999999999999991e-06
aF1.999999999999991e-06
aF1.0000000000000004e-06
aF1.0000000000000004e-06
aF1.0000000000000004e-06
aF2.9999999999999814e-06
aF1.999999999999991e-06
aF1.0000000000000004e-06
aF1.0000000000000004e-06
aF1.999999999999991e-06
aF2.9999999999999814e-06
aF1.0000000000000004e-06
aF1.0000000000000004e-06
aF1.999999999999991e-06
aF1.999999999999991e-06
aF1.0000000000000004e-06
aF1.999999999999991e-06
aF1.0000000000000004e-06
aF1.999999999999991e-06
aF1.0000000000000004e-06
aF1.0000000000000004e-06
aF1.0000000000000004e-06
aF1.0000000000000004e-06
aF1.0000000000000004e-06
aF1.0000000000000004e-06
aF1.0000000000000004e-06
aF1.0000000000000004e-06
aF1.0000000000000004e-06
aF1.999999999999991e-06
aF1.0000000000000004e-06
aF1.0000000000000004e-06
aF1.0000000000000004e-06
aF1.999999999999991e-06
aF1.999999999999991e-06
aF2.9999999999999814e-06
aF1.999999999999991e-06
aF1.999999999999991e-06
aF1.0000000000000004e-06
aF1.999999999999991e-06
aF2.9999999999999814e-06
aF1.0000000000000004e-06
aF1.0000000000000004e-06
aF1.0000000000000004e-06
aF1.0000000000000004e-06
aF1.999999999999991e-06
aF1.999999999999991e-06
aF1.999999999999991e-06
aF1.999999999999991e-06
aF1.0000000000000004e-06
aF1.0000000000000004e-06
aF1.999999999999991e-06
aF1.0000000000000004e-06
aF1.999999999999991e-06
aF1.0000000000000004e-06
aF2.9999999999999814e-06
aF1.0000000000000004e-06
aF1.0000000000000004e-06
aF1.0000000000000004e-06
aF1.0000000000000004e-06
aF1.999999999999991e-06
aF1.999999999999991e-06
aF1.0000000000000004e-06
aF3.999999999999972e-06
aF1.999999999999991e-06
aF1.999999999999991e-06
aF2.9999999999999814e-06
aF1.0000000000000004e-06
aF2.9999999999999814e-06
aF1.0000000000000004e-06
aF2.9999999999999814e-06
aF1.999999999999991e-06
aF1.999999999999991e-06
aF2.9999999999999814e-06
aF1.0000000000000004e-06
aF1.999999999999991e-06
aF1.0000000000000004e-06
aF1.0000000000000004e-06
aF2.9999999999999814e-06
aF2.9999999999999814e-06
aF1.0000000000000004e-06
aF2.9999999999999814e-06
aF1.999999999999991e-06
aF1.999999999999991e-06
aF1.0000000000000004e-06
aF1.0000000000000004e-06
aF1.999999999999991e-06
aF1.999999999999991e-06
aF1.0000000000000004e-06
aF1.0000000000000004e-06
aF2.9999999999999814e-06
aF1.0000000000000004e-06
aF1.0000000000000004e-06
aF1.0000000000000004e-06
aF1.999999999999991e-06
aF1.0000000000000004e-06
aF1.999999999999991e-06
aF1.0000000000000004e-06
aF1.999999999999991e-06
aF1.999999999999991e-06
aF1.0000000000000004e-06
aF1.0000000000000004e-06
aF1.999999999999991e-06
aF1.999999999999991e-06
aF1.0000000000000004e-06
aF1.999999999999991e-06
aF1.0000000000000004e-06
aF1.0000000000000004e-06
aF1.0000000000000004e-06
aF1.0000000000000004e-06
aF1.999999999999991e-06
aF2.9999999999999814e-06
aF1.999999999999991e-06
aF1.999999999999991e-06
aF2.9999999999999814e-06
aF1.0000000000000004e-06
aF1.999999999999991e-06
aF1.999999999999991e-06
aF1.999999999999991e-06
aF1.999999999999991e-06
aF1.0000000000000004e-06
aF1.0000000000000004e-06
aF1.0000000000000004e-06
aF1.0000000000000004e-06
aF1.0000000000000004e-06
aF1.0000000000000004e-06
aF1.999999999999991e-06
aF1.999999999999991e-06
aF1.999999999999991e-06
aF1.999999999999991e-06
aF1.999999999999991e-06
aF1.0000000000000004e-06
aF1.0000000000000004e-06
aF1.0000000000000004e-06
aF1.0000000000000004e-06
aF1.0000000000000004e-06
aF1.999999999999991e-06
aF1.0000000000000004e-06
aF1.999999999999991e-06
aF1.0000000000000004e-06
aF1.999999999999991e-06
aF1.0000000000000004e-06
aF1.0000000000000004e-06
aF2.9999999999999814e-06
aF1.0000000000000004e-06
aF1.0000000000000004e-06
aF1.0000000000000004e-06
aF1.999999999999991e-06
aF1.999999999999991e-06
aF1.0000000000000004e-06
aF2.9999999999999814e-06
aF1.999999999999991e-06
aF1.999999999999991e-06
aF1.0000000000000004e-06
aF1.999999999999991e-06
aF2.9999999999999814e-06
aF1.999999999999991e-06
aF1.999999999999991e-06
aF1.999999999999991e-06
aF1.999999999999991e-06
aF1.0000000000000004e-06
aF1.0000000000000004e-06
aF1.0000000000000004e-06
aF2.9999999999999814e-06
aF1.999999999999991e-06
aF1.0000000000000004e-06
aF1.999999999999991e-06
aF1.999999999999991e-06
aF1.0000000000000004e-06
aF1.999999999999991e-06
aF1.999999999999991e-06
aF1.999999999999991e-06
aF1.0000000000000004e-06
aF2.9999999999999814e-06
aF2.9999999999999814e-06
aF1.0000000000000004e-06
aF2.9999999999999814e-06
aF1.999999999999991e-06
aF1.999999999999991e-06
aF1.999999999999991e-06
aF1.999999999999991e-06
aF1.0000000000000004e-06
aF1.0000000000000004e-06
aF1.0000000000000004e-06
aF1.0000000000000004e-06
aF1.999999999999991e-06
aF2.9999999999999814e-06
aF1.0000000000000004e-06
aF2.9999999999999814e-06
aF1.0000000000000004e-06
aF1.0000000000000004e-06
aF1.0000000000000004e-06
aF1.0000000000000004e-06
aF3.999999999999972e-06
aF1.0000000000000004e-06
aF1.999999999999991e-06
aF1.0000000000000004e-06
aF1.999999999999991e-06
aF1.999999999999991e-06
aF1.999999999999991e-06
aF1.0000000000000004e-06
aF1.999999999999991e-06
aF2.9999999999999814e-06
aF1.0000000000000004e-06
aF1.999999999999991e-06
aF1.999999999999991e-06
aF1.0000000000000004e-06
aF1.0000000000000004e-06
aF2.9999999999999814e-06
aF1.0000000000000004e-06
aF1.0000000000000004e-06
aF1.999999999999991e-06
aF1.0000000000000004e-06
aF1.999999999999991e-06
aF1.0000000000000004e-06
aF2.9999999999999814e-06
aF1.0000000000000004e-06
aF1.0000000000000004e-06
aF1.0000000000000004e-06
aF1.999999999999991e-06
aF1.999999999999991e-06
aF2.9999999999999814e-06
aF1.0000000000000004e-06
aF1.999999999999991e-06
aF1.999999999999991e-06
aF1.999999999999991e-06
aF1.0000000000000004e-06
aF1.999999999999991e-06
aF1.999999999999991e-06
aF1.0000000000000004e-06
aF1.999999999999991e-06
aF1.0000000000000004e-06
aF1.999999999999991e-06
aF1.999999999999991e-06
aF1.999999999999991e-06
aF1.999999999999991e-06
aF1.0000000000000004e-06
aF1.0000000000000004e-06
aF1.999999999999991e-06
aF1.0000000000000004e-06
aF1.999999999999991e-06
aF1.999999999999991e-06
aF1.999999999999991e-06
aF2.9999999999999814e-06
aF1.999999999999991e-06
aF1.0000000000000004e-06
aF1.0000000000000004e-06
aF1.0000000000000004e-06
aF1.999999999999991e-06
aF1.0000000000000004e-06
aF1.0000000000000004e-06
aF1.999999999999991e-06
aF1.999999999999991e-06
aF1.999999999999991e-06
aF1.0000000000000004e-06
aF1.999999999999991e-06
aF1.0000000000000004e-06
aF1.0000000000000004e-06
aF1.0000000000000004e-06
aF1.0000000000000004e-06
aF1.999999999999991e-06
aF1.0000000000000004e-06
aF2.9999999999999814e-06
aF1.0000000000000004e-06
aF1.0000000000000004e-06
aF2.9999999999999814e-06
aF1.999999999999991e-06
aF2.9999999999999814e-06
aF1.0000000000000004e-06
aF3.999999999999972e-06
aF1.0000000000000004e-06
aF1.0000000000000004e-06
aF1.0000000000000004e-06
aF1.0000000000000004e-06
aF1.0000000000000004e-06
aF1.0000000000000004e-06
aF2.9999999999999814e-06
aF2.9999999999999814e-06
aF1.0000000000000004e-06
aF1.0000000000000004e-06
aF1.0000000000000004e-06
aF1.0000000000000004e-06
aF1.0000000000000004e-06
aF1.0000000000000004e-06
aF1.999999999999991e-06
aF1.999999999999991e-06
aF1.0000000000000004e-06
aF1.0000000000000004e-06
aF1.0000000000000004e-06
aF1.999999999999991e-06
aF1.0000000000000004e-06
aF1.999999999999991e-06
aF1.0000000000000004e-06
aF1.999999999999991e-06
aF2.9999999999999814e-06
aF1.0000000000000004e-06
aF2.9999999999999814e-06
aF3.999999999999972e-06
aF1.999999999999991e-06
aF1.999999999999991e-06
aF1.0000000000000004e-06
aF1.999999999999991e-06
aF1.999999999999991e-06
aF1.0000000000000004e-06
aF1.999999999999991e-06
aF1.999999999999991e-06
aF1.999999999999991e-06
aF1.999999999999991e-06
aF1.0000000000000004e-06
aF1.0000000000000004e-06
aF1.0000000000000004e-06
aF1.0000000000000004e-06
aF1.0000000000000004e-06
aF1.0000000000000004e-06
aF1.0000000000000004e-06
aF3.999999999999972e-06
aF1.999999999999991e-06
aF1.0000000000000004e-06
aF1.0000000000000004e-06
aF2.9999999999999814e-06
aF1.0000000000000004e-06
aF1.0000000000000004e-06
aF1.999999999999991e-06
aF1.999999999999991e-06
aF1.999999999999991e-06
aF1.999999999999991e-06
aF1.0000000000000004e-06
aF1.0000000000000004e-06
aF2.9999999999999814e-06
aF1.0000000000000004e-06
aF1.999999999999991e-06
aF1.0000000000000004e-06
aF2.9999999999999814e-06
aF1.0000000000000004e-06
aF1.0000000000000004e-06
aF1.0000000000000004e-06
aF1.0000000000000004e-06
aF1.999999999999991e-06
aF1.0000000000000004e-06
aF1.999999999999991e-06
aF1.0000000000000004e-06
aF1.0000000000000004e-06
aF1.0000000000000004e-06
aF1.999999999999991e-06
aF1.999999999999991e-06
aF1.999999999999991e-06
aF1.0000000000000004e-06
aF1.999999999999991e-06
aF1.0000000000000004e-06
aF1.999999999999991e-06
aF1.0000000000000004e-06
aF1.0000000000000004e-06
aF1.999999999999991e-06
aF1.0000000000000004e-06
aF1.999999999999991e-06
aF1.0000000000000004e-06
aF2.9999999999999814e-06
aF1.999999999999991e-06
aF1.999999999999991e-06
aF1.0000000000000004e-06
aF2.9999999999999814e-06
aF2.9999999999999814e-06
aF1.999999999999991e-06
aF1.0000000000000004e-06
aF1.999999999999991e-06
aF1.0000000000000004e-06
aF1.0000000000000004e-06
aF1.0000000000000004e-06
aF1.999999999999991e-06
aF1.0000000000000004e-06
aF1.999999999999991e-06
aF1.0000000000000004e-06
aF1.999999999999991e-06
aF3.999999999999972e-06
aF1.999999999999991e-06
aF1.0000000000000004e-06
aF1.0000000000000004e-06
aF1.0000000000000004e-06
aF1.999999999999991e-06
aF2.9999999999999814e-06
aF1.999999999999991e-06
aF1.0000000000000004e-06
aF1.999999999999991e-06
aF1.999999999999991e-06
aF1.0000000000000004e-06
aF1.0000000000000004e-06
aF1.0000000000000004e-06
aF1.0000000000000004e-06
aF1.999999999999991e-06
aF1.999999999999991e-06
aF1.0000000000000004e-06
aF1.999999999999991e-06
aF1.0000000000000004e-06
aF2.9999999999999814e-06
a.