(lp0
I0
aF1e-10
aF2e-10
aF3e-10
aF4e-10
aF5e-10
aF6e-10
aF7e-10
aF7.999999999999999e-10
aF8.999999999999999e-10
aF9.999999999999999e-10
aF1.1e-09
aF1.2e-09
aF1.3e-09
aF1.4000000000000001e-09
aF1.5000000000000002e-09
aF1.6000000000000003e-09
aF1.7000000000000003e-09
aF1.8000000000000004e-09
aF1.9000000000000005e-09
aF2.0000000000000005e-09
aF2.1000000000000006e-09
aF2.2000000000000007e-09
aF2.3000000000000007e-09
aF2.400000000000001e-09
aF2.500000000000001e-09
aF2.600000000000001e-09
aF2.700000000000001e-09
aF2.800000000000001e-09
aF2.900000000000001e-09
aF3.0000000000000012e-09
aF3.1000000000000013e-09
aF3.2000000000000014e-09
aF3.3000000000000014e-09
aF3.4000000000000015e-09
aF3.5000000000000016e-09
aF3.6000000000000016e-09
aF3.7000000000000017e-09
aF3.800000000000002e-09
aF3.900000000000002e-09
aF4.000000000000002e-09
aF4.100000000000002e-09
aF4.200000000000002e-09
aF4.300000000000002e-09
aF4.400000000000002e-09
aF4.500000000000002e-09
aF4.600000000000002e-09
aF4.700000000000002e-09
aF4.8000000000000024e-09
aF4.9000000000000025e-09
aF5.0000000000000026e-09
aF5.100000000000003e-09
aF5.200000000000003e-09
aF5.300000000000003e-09
aF5.400000000000003e-09
aF5.500000000000003e-09
aF5.600000000000003e-09
aF5.700000000000003e-09
aF5.800000000000003e-09
aF5.900000000000003e-09
aF6.000000000000003e-09
aF6.100000000000003e-09
aF6.200000000000003e-09
aF6.3000000000000035e-09
aF6.4000000000000035e-09
aF6.500000000000004e-09
aF6.600000000000004e-09
aF6.700000000000004e-09
aF6.800000000000004e-09
aF6.900000000000004e-09
aF7.000000000000004e-09
aF7.100000000000004e-09
aF7.200000000000004e-09
aF7.300000000000004e-09
aF7.400000000000004e-09
aF7.500000000000004e-09
aF7.600000000000004e-09
aF7.700000000000003e-09
aF7.800000000000002e-09
aF7.900000000000001e-09
aF8e-09
aF8.1e-09
aF8.199999999999999e-09
aF8.299999999999998e-09
aF8.399999999999997e-09
aF8.499999999999997e-09
aF8.599999999999996e-09
aF8.699999999999995e-09
aF8.799999999999994e-09
aF8.899999999999994e-09
aF8.999999999999993e-09
aF9.099999999999992e-09
aF9.199999999999991e-09
aF9.29999999999999e-09
aF9.39999999999999e-09
aF9.499999999999989e-09
aF9.599999999999988e-09
aF9.699999999999988e-09
aF9.799999999999987e-09
aF9.899999999999986e-09
aF9.999999999999985e-09
a.